"File: app.c         Assembler  Version HGASM0202      Page 1


   1  0000              ; Generated by holtek-gcc v3.19, Tue Apr 05 13:18:21 2022
   2  0000              ; 
   3  0000              ; Configuration:
   4  0000              ;       with long instruction
   5  0000              ;       Single ROM, Multi-RAM
   6  0000              ;       bits_per_rom_unit:16
   7  0000              ;       with mp1
   8  0000              ;       with tbhp, address(0x9)
   9  0000              ;          Use tabrd-const
  10  0000              ;       
  11  0000              ; SFR address of long-instruction arch:
  12  0000              ;    mp0 = -1,1,0
  13  0000              ;    mp1 = 4,3,2
  14  0000              ;    mp2 = 14,13,12
  15  0000              ;    tbp = 9,7,8
  16  0000              ;    acc = 5
  17  0000              ;    pcl = 6
  18  0000              ;    status = 10
  19  0000              ;    bp = 11
  20  0000              ;    intc = 17
  21  0000              ;       
  22  0000              ;       
  23  0000              ; use 'tabrdc' instead of 'tabrd'
  24  0000              ;       
  25  0000              
  26  0000              #pragma translator "holtek-gcc 4.6.4" "3.19" "build 20130711"
  27  0000              ; Rebuild 718
  28  0000              
  29  0000              ir equ [2]
  30  0000              mp equ [3]
  31  0000              sbp equ [4]
  32  0000              acc equ [5]
  33  0000              bp equ [11]
  34  0000              tblp equ [7]
  35  0000              tbhp equ [9]
  36  0000              status equ [10]
  37  0000              c equ [10].0
  38  0000              ac equ [10].1
  39  0000              z equ [10].2
  40  0000              ov equ [10].3
  41  0000              cz equ [10].6
  42  0000              sc equ [10].7
  43  0000              intc equ [17]
  44  0000              
  45  0000              extern ra:byte
  46  0000              extern rb:byte
  47  0000              extern rc:byte
  48  0000              extern rd:byte
  49  0000              extern re:byte
  50  0000              extern rf:byte
  51  0000              extern rg:byte
  52  0000              extern rh:byte
  53  0000              extern _Crom2Prom:near
  54  0000              extern _Crom2PromNext:near
  55  0000              
  56  0000              RAMBANK 0 @BITDATASEC, @BITDATASEC1
  57  0000              @HCCINIT	.section 'data'
  58  0000              @HCCINIT0	.section 'data'
  59  0000              @BITDATASEC	 .section 'data'
"File: app.ASM       Assembler  Version HGASM0202      Page 2

  60  0000              @BITDATASEC1	 .section 'data'
  61  0000              
  62  0000              #pragma debug scope 1 1
  63  0000              	extern __DELAY3:near
  64  0000              	extern __DELAYX3:near
  65  0000              	extern __DELAYX6:near
  66  0000              	extern __DELAYY5:near
  67  0000              	extern __DELAYY3:near
  68  0000              	extern _builtin_holtek_delay_2:byte
  69  0000              public _turnOn_triac
  70  0000              #pragma debug scope 2 1

  39  0000              #line 39 "d:\projects\bldc fan\remote fan final to production\global(longway)1\app.c"
  39  0000              _turnOn_triac .section 'code'
  39  0000              _turnOn_triac proc
  39  0000  00              local _turnOn_triac_2 db 1 dup(?)	; 0,1
  41  0001              #line 41 "d:\projects\bldc fan\remote fan final to production\global(longway)1\app.c"
  41  0000  0700     R  	mov a,_TriacCheckState[0]
  41  0001  0080     R  	mov _turnOn_triac_2[0],a
  41  0002  3C00     R  	sz _turnOn_triac_2[0].0
  41  0003  2800     R  	jmp _L2
  43  0004              #line 43 "d:\projects\bldc fan\remote fan final to production\global(longway)1\app.c"
  43  0004  3400     R  	clr _TriacState[0].0
  45  0005              #line 45 "d:\projects\bldc fan\remote fan final to production\global(longway)1\app.c"
  45  0005  1F00     R  	clr _TRIAC_1_TIMEOUT_COUNTER[0]
  45  0006              _L2:
  47  0006              #line 47 "d:\projects\bldc fan\remote fan final to production\global(longway)1\app.c"
  47  0006  3C00     R  	sz _turnOn_triac_2[0].1
  47  0007  2800     R  	jmp _L3
  49  0008              #line 49 "d:\projects\bldc fan\remote fan final to production\global(longway)1\app.c"
  49  0008  3400     R  	clr _TriacState[0].1
  50  0009              #line 50 "d:\projects\bldc fan\remote fan final to production\global(longway)1\app.c"
  50  0009  1F00     R  	clr _TRIAC_2_TIMEOUT_COUNTER[0]
  50  000A              _L3:
  53  000A              #line 53 "d:\projects\bldc fan\remote fan final to production\global(longway)1\app.c"
  53  000A  3C00     R  	sz _turnOn_triac_2[0].2
  53  000B  2800     R  	jmp _L4
  55  000C              #line 55 "d:\projects\bldc fan\remote fan final to production\global(longway)1\app.c"
  55  000C  3400     R  	clr _TriacState[0].2
  56  000D              #line 56 "d:\projects\bldc fan\remote fan final to production\global(longway)1\app.c"
  56  000D  1F00     R  	clr _TRIAC_3_TIMEOUT_COUNTER[0]
  56  000E              _L4:
  59  000E              #line 59 "d:\projects\bldc fan\remote fan final to production\global(longway)1\app.c"
  59  000E  3C00     R  	sz _turnOn_triac_2[0].3
  59  000F  2800     R  	jmp _L5
  61  0010              #line 61 "d:\projects\bldc fan\remote fan final to production\global(longway)1\app.c"
  61  0010  3400     R  	clr _TriacState[0].3
  61  0011              _L5:
  65  0011              #line 65 "d:\projects\bldc fan\remote fan final to production\global(longway)1\app.c"
  65  0011  0700     R  	mov a,_TriacState[0]
  65  0012  0E0F        	and a,15
  65  0013  0080     E  	mov _TRIAC_INT[0],a
  65  0014  0003        	ret
  65  0015              _turnOn_triac endp
  65  0015              #line 65 "d:\projects\bldc fan\remote fan final to production\global(longway)1\app.c"
  65  0015              #pragma debug scope 1 1
  65  0015              ___pa equ [20]
  65  0015              public _turnoff_triac
  65  0015              #pragma debug scope 3 1
  70  0015              #line 70 "d:\projects\bldc fan\remote fan final to production\global(longway)1\app.c"
"File: app.c         Assembler  Version HGASM0202      Page 3

  70  0000              _turnoff_triac .section 'code'
  70  0000              _turnoff_triac proc
  70  0000  00              local _turnoff_triac_2 db 1 dup(?)	; 0,1
  71  0001              #line 71 "d:\projects\bldc fan\remote fan final to production\global(longway)1\app.c"
  71  0000  0700     R  	mov a,_TriacCheckState[0]
  71  0001  0080     R  	mov _turnoff_triac_2[0],a
  71  0002  3800     R  	snz _turnoff_triac_2[0].0
  71  0003  2800     R  	jmp _L8
  71  0004              #line 71 "d:\projects\bldc fan\remote fan final to production\global(longway)1\app.c"
  71  0004  3C00     R  	sz _TriacState[0].0
  71  0005  2800     R  	jmp _L8
  73  0006              #line 73 "d:\projects\bldc fan\remote fan final to production\global(longway)1\app.c"
  73  0006  3000     R  	set _TriacState[0].0
  74  0007              #line 74 "d:\projects\bldc fan\remote fan final to production\global(longway)1\app.c"
  74  0007  0F0A        	mov a,10
  74  0008  0080     R  	mov _TRIAC_1_TIMEOUT_COUNTER[0],a
  74  0009              _L8:
  77  0009              #line 77 "d:\projects\bldc fan\remote fan final to production\global(longway)1\app.c"
  77  0009  3800     R  	snz _turnoff_triac_2[0].1
  77  000A  2800     R  	jmp _L9
  77  000B  3C00     R  	sz _TriacState[0].1
  77  000C  2800     R  	jmp _L9
  79  000D              #line 79 "d:\projects\bldc fan\remote fan final to production\global(longway)1\app.c"
  79  000D  3000     R  	set _TriacState[0].1
  80  000E              #line 80 "d:\projects\bldc fan\remote fan final to production\global(longway)1\app.c"
  80  000E  0F10        	mov a,16
  80  000F  0080     R  	mov _TRIAC_2_TIMEOUT_COUNTER[0],a
  80  0010              _L9:
  82  0010              #line 82 "d:\projects\bldc fan\remote fan final to production\global(longway)1\app.c"
  82  0010  3800     R  	snz _turnoff_triac_2[0].2
  82  0011  2800     R  	jmp _L10
  82  0012  3C00     R  	sz _TriacState[0].2
  82  0013  2800     R  	jmp _L10
  84  0014              #line 84 "d:\projects\bldc fan\remote fan final to production\global(longway)1\app.c"
  84  0014  3000     R  	set _TriacState[0].2
  85  0015              #line 85 "d:\projects\bldc fan\remote fan final to production\global(longway)1\app.c"
  85  0015  0F18        	mov a,24
  85  0016  0080     R  	mov _TRIAC_3_TIMEOUT_COUNTER[0],a
  85  0017              _L10:
  87  0017              #line 87 "d:\projects\bldc fan\remote fan final to production\global(longway)1\app.c"
  87  0017  3800     R  	snz _turnoff_triac_2[0].3
  87  0018  2800     R  	jmp _L11
  87  0019  3C00     R  	sz _TriacState[0].3
  87  001A  2800     R  	jmp _L11
  91  001B              #line 91 "d:\projects\bldc fan\remote fan final to production\global(longway)1\app.c"
  91  001B  3000     R  	set _TriacState[0].3
  93  001C              #line 93 "d:\projects\bldc fan\remote fan final to production\global(longway)1\app.c"
  93  001C  3094        	set [20].1
  93  001D              _L11:
  99  001D              #line 99 "d:\projects\bldc fan\remote fan final to production\global(longway)1\app.c"
  99  001D  0700     R  	mov a,_TriacState[0]
  99  001E  0E0F        	and a,15
  99  001F  0080     E  	mov _TRIAC_INT[0],a
  99  0020  0003        	ret
  99  0021              _turnoff_triac endp
  99  0021              #line 99 "d:\projects\bldc fan\remote fan final to production\global(longway)1\app.c"
  99  0021              #pragma debug scope 1 1
  99  0021              public _checkSpeedChange
  99  0021              #pragma debug scope 4 1
 105  0021              #line 105 "d:\projects\bldc fan\remote fan final to production\global(longway)1\app.c"
"File: app.c         Assembler  Version HGASM0202      Page 4

 105  0000              _checkSpeedChange .section 'code'
 105  0000              _checkSpeedChange proc
 107  0000              #line 107 "d:\projects\bldc fan\remote fan final to production\global(longway)1\app.c"
 107  0000  0700     R  	mov a,_FanSpeedState[0]
 107  0001  0400     R  	xor a,_FanSpeedValue[0]
 107  0002  0080     E  	mov ra,a
 107  0003  0FF0        	mov a,240
 107  0004  0680     E  	andm a,ra
 107  0005  1E00     E  	snz ra
 107  0006  2800     R  	jmp _L24
 110  0007              #line 110 "d:\projects\bldc fan\remote fan final to production\global(longway)1\app.c"
 110  0007  1100     R  	swapa _FanSpeedValue[0]
 110  0008  0E0F        	and a,0fh
 110  0009  0080     E  	mov rb,a
 110  000A  0700     E  	mov a,rb
 110  000B  0080     E  	mov ra,a
 110  000C  1100     E  	swapa ra
 110  000D  0EF0        	and a,0f0h 
 110  000E  0080     E  	mov ra,a
 110  000F  1100     R  	swapa _FanSpeedState[0]
 110  0010  0E0F        	and a,0fh
 110  0011  0080     E  	mov rc,a
 110  0012  0700     E  	mov a,rc
 110  0013  0500     E  	or a,ra
 110  0014  0080     R  	mov _FanSpeedState[0],a
 112  0015              #line 112 "d:\projects\bldc fan\remote fan final to production\global(longway)1\app.c"
 112  0015  1F00     E  	clr rc
 112  0016  0700     E  	mov a,rb
 112  0017  0500     E  	or a,rc
 112  0018  3D0A        	sz z
 112  0019  2800     R  	jmp _L27
 112  001A  0700     E  	mov a,rb
 112  001B  0C01        	xor a,1
 112  001C  0500     E  	or a,rc
 112  001D  3D0A        	sz z
 112  001E  2800     R  	jmp _L28
 112  001F  0700     E  	mov a,rb
 112  0020  0C02        	xor a,2
 112  0021  0500     E  	or a,rc
 112  0022  3D0A        	sz z
 112  0023  2800     R  	jmp _L29
 112  0024  0700     E  	mov a,rb
 112  0025  0C03        	xor a,3
 112  0026  0500     E  	or a,rc
 112  0027  3D0A        	sz z
 112  0028  2800     R  	jmp _L30
 112  0029  0700     E  	mov a,rb
 112  002A  0C04        	xor a,4
 112  002B  0500     E  	or a,rc
 112  002C  3D0A        	sz z
 112  002D  2800     R  	jmp _L31
 112  002E  0700     E  	mov a,rb
 112  002F  0C05        	xor a,5
 112  0030  0500     E  	or a,rc
 112  0031  3D0A        	sz z
 112  0032  2800     R  	jmp _L32
 112  0033  0700     E  	mov a,rb
 112  0034  0C06        	xor a,6
 112  0035  0500     E  	or a,rc
 112  0036  3D0A        	sz z
"File: app.c         Assembler  Version HGASM0202      Page 5

 112  0037  2800     R  	jmp _L33
 112  0038  0700     E  	mov a,rb
 112  0039  0C07        	xor a,7
 112  003A  0500     E  	or a,rc
 112  003B  390A        	snz z
 112  003C  2800     R  	jmp _L26
 140  003D              #line 140 "d:\projects\bldc fan\remote fan final to production\global(longway)1\app.c"
 140  003D  0F07        	mov a,7
 140  003E  0080     R  	mov _TriacCheckState[0],a
 141  003F              #line 141 "d:\projects\bldc fan\remote fan final to production\global(longway)1\app.c"
 141  003F  2800     R  	jmp _L26
 141  0040              _L27:
 115  0040              #line 115 "d:\projects\bldc fan\remote fan final to production\global(longway)1\app.c"
 115  0040  0F0F        	mov a,15
 115  0041  0080     R  	mov _TriacCheckState[0],a
 116  0042              #line 116 "d:\projects\bldc fan\remote fan final to production\global(longway)1\app.c"
 116  0042  2800     R  	jmp _L26
 116  0043              _L28:
 119  0043              #line 119 "d:\projects\bldc fan\remote fan final to production\global(longway)1\app.c"
 119  0043  0F0E        	mov a,14
 119  0044  0080     R  	mov _TriacCheckState[0],a
 120  0045              #line 120 "d:\projects\bldc fan\remote fan final to production\global(longway)1\app.c"
 120  0045  2800     R  	jmp _L26
 120  0046              _L29:
 123  0046              #line 123 "d:\projects\bldc fan\remote fan final to production\global(longway)1\app.c"
 123  0046  0F0D        	mov a,13
 123  0047  0080     R  	mov _TriacCheckState[0],a
 124  0048              #line 124 "d:\projects\bldc fan\remote fan final to production\global(longway)1\app.c"
 124  0048  2800     R  	jmp _L26
 124  0049              _L30:
 127  0049              #line 127 "d:\projects\bldc fan\remote fan final to production\global(longway)1\app.c"
 127  0049  0F0B        	mov a,11
 127  004A  0080     R  	mov _TriacCheckState[0],a
 128  004B              #line 128 "d:\projects\bldc fan\remote fan final to production\global(longway)1\app.c"
 128  004B  2800     R  	jmp _L26
 128  004C              _L31:
 131  004C              #line 131 "d:\projects\bldc fan\remote fan final to production\global(longway)1\app.c"
 131  004C  0F0A        	mov a,10
 131  004D  0080     R  	mov _TriacCheckState[0],a
 132  004E              #line 132 "d:\projects\bldc fan\remote fan final to production\global(longway)1\app.c"
 132  004E  2800     R  	jmp _L26
 132  004F              _L32:
 134  004F              #line 134 "d:\projects\bldc fan\remote fan final to production\global(longway)1\app.c"
 134  004F  0F09        	mov a,9
 134  0050  0080     R  	mov _TriacCheckState[0],a
 135  0051              #line 135 "d:\projects\bldc fan\remote fan final to production\global(longway)1\app.c"
 135  0051  2800     R  	jmp _L26
 135  0052              _L33:
 137  0052              #line 137 "d:\projects\bldc fan\remote fan final to production\global(longway)1\app.c"
 137  0052  0F08        	mov a,8
 137  0053  0080     R  	mov _TriacCheckState[0],a
 137  0054              _L26:
 145  0054              #line 145 "d:\projects\bldc fan\remote fan final to production\global(longway)1\app.c"
 145  0054  0700     R  	mov a,_TriacCheckState[0]
 145  0055  0080     E  	mov rb,a
 146  0056              #line 146 "d:\projects\bldc fan\remote fan final to production\global(longway)1\app.c"
 146  0056  0700     E  	mov a,rb
 146  0057  0400     R  	xor a,_TriacState[0]
 146  0058  0080     E  	mov ra,a
 146  0059  1100     E  	swapa ra
"File: app.c         Assembler  Version HGASM0202      Page 6

 146  005A  0EF0        	and a,0f0h 
 146  005B  0080     E  	mov ra,a
 147  005C              #line 147 "d:\projects\bldc fan\remote fan final to production\global(longway)1\app.c"
 147  005C  0700     E  	mov a,ra
 147  005D  0500     E  	or a,rb
 147  005E  0080     R  	mov _TriacCheckState[0],a
 147  005F              _L24:
 147  005F  0003        	ret
 147  0060              _checkSpeedChange endp
 147  0060              #line 147 "d:\projects\bldc fan\remote fan final to production\global(longway)1\app.c"
 147  0060              #pragma debug scope 1 1
 147  0060              ___intc1 equ [18]
 147  0060              ___tb0c equ [27]
 147  0060              public _SysInit
 147  0060              #pragma debug scope 5 1
 465  0060              #line 465 "d:\projects\bldc fan\remote fan final to production\global(longway)1\app.c"
 465  0000              _SysInit .section 'code'
 465  0000              _SysInit proc
 474  0000              #line 474 "d:\projects\bldc fan\remote fan final to production\global(longway)1\app.c"
 474  0000  3792        	clr [18].7
 475  0001              #line 475 "d:\projects\bldc fan\remote fan final to production\global(longway)1\app.c"
 475  0001  0F87        	mov a,135
 475  0002  009B        	mov [27],a
 476  0003              #line 476 "d:\projects\bldc fan\remote fan final to production\global(longway)1\app.c"
 476  0003  3192        	set [18].3
 476  0004  0003        	ret
 476  0005              _SysInit endp
 476  0005              #line 476 "d:\projects\bldc fan\remote fan final to production\global(longway)1\app.c"
 476  0005              #pragma debug scope 1 1
 476  0005              public _timer_128mSec
 476  0005              #pragma debug scope 6 1
 480  0005              #line 480 "d:\projects\bldc fan\remote fan final to production\global(longway)1\app.c"
 480  0000              @timer_128mSec_code .section at 28 'code'
 480  0000              ifdef INTERRUPT_DELAY
 480  0000              	nop
 480  0000              endif
 480  0000  0080     E  	mov r1,a
 480  0001  070A        	mov a,status
 480  0002              ifndef INTERRUPT_DELAY
 480  0002  0080     E  	mov r2,a
 480  0003              endif
 480  0003  2800     R  	jmp _timer_128mSec
 480  0004              #pragma debug scope 1 1
 480  0004              @dummy28 endp
 480  0004              #pragma debug scope 7 1
 480  0000              _timer_128mSec .section 'code'
 480  0000              _timer_128mSec proc
 480  0000              ifdef INTERRUPT_DELAY
 480  0000              	mov r2,a
 480  0000              endif
 483  0000              #line 483 "d:\projects\bldc fan\remote fan final to production\global(longway)1\app.c"
 483  0000  3792        	clr [18].7
 484  0001              #line 484 "d:\projects\bldc fan\remote fan final to production\global(longway)1\app.c"
 484  0001  1480     R  	inc _counter_128Msec[0]
 485  0002              #line 485 "d:\projects\bldc fan\remote fan final to production\global(longway)1\app.c"
 485  0002  0700     R  	mov a,_No_zero_cross_counter[0]
 485  0003  0080     E  	mov ra,a
 485  0004  0F63        	mov a,99
 485  0005  0200     E  	sub a,ra
 485  0006  380A        	snz c
"File: app.c         Assembler  Version HGASM0202      Page 7

 485  0007  2800     R  	jmp _L39
 486  0008              #line 486 "d:\projects\bldc fan\remote fan final to production\global(longway)1\app.c"
 486  0008  1400     E  	inca ra
 486  0009  0080     R  	mov _No_zero_cross_counter[0],a
 486  000A              _L39:
 486  000A  0700     E  	mov a,r2
 486  000B  008A        	mov status,a
 486  000C  0700     E  	mov a,r1
 486  000D  0004        	reti
 486  000E              _timer_128mSec endp
 486  000E              
 486  000E              #line 486 "d:\projects\bldc fan\remote fan final to production\global(longway)1\app.c"
 486  000E              #pragma debug scope 1 1
 486  000E              public _secUpCounter
 486  000E              #pragma debug scope 8 1
 493  000E              #line 493 "d:\projects\bldc fan\remote fan final to production\global(longway)1\app.c"
 493  0000              _secUpCounter .section 'code'
 493  0000              _secUpCounter proc
 493  0000              public _secUpCounter_2
 493  0000  0003[           local _secUpCounter_2 db 3 dup(?)	; 2,1
            00
            ]
 493  0003              #pragma debug pointer 42 8 8
 493  0003              #pragma debug pointer 42 8 8
 493  0003              #pragma debug variable 42 8 _secUpCounter_2+0 "ptr"
 495  0003              #line 495 "d:\projects\bldc fan\remote fan final to production\global(longway)1\app.c"
 495  0000  3800     R  	snz _SEC_LOOP_FLG
 495  0001  2800     R  	jmp _L41
 497  0002              #line 497 "d:\projects\bldc fan\remote fan final to production\global(longway)1\app.c"
 497  0002  0700     R  	mov a,_secUpCounter_2[0]
 497  0003  0083        	mov mp,a
 497  0004  0700     R  	mov a,_secUpCounter_2[1]
 497  0005  0084        	mov sbp,a
 497  0006  2000     E  	call _Crom2Prom
 497  0007  0080     R  	mov _secUpCounter_2[2],a
 497  0008  1400     R  	inca _secUpCounter_2[2]
 497  0009  0080     E  	mov ra,a
 497  000A  0700     E  	mov a,ra
 497  000B  0082        	mov ir,a
 497  000C              _L41:
 497  000C  0003        	ret
 497  000D              _secUpCounter endp
 497  000D              #line 497 "d:\projects\bldc fan\remote fan final to production\global(longway)1\app.c"
 497  000D              #pragma debug scope 1 1
 497  000D              public _secDownCounter
 497  000D              #pragma debug scope 9 1
 502  000D              #line 502 "d:\projects\bldc fan\remote fan final to production\global(longway)1\app.c"
 502  0000              _secDownCounter .section 'code'
 502  0000              _secDownCounter proc
 502  0000              public _secDownCounter_2
 502  0000  0002[           local _secDownCounter_2 db 2 dup(?)	; 2,0
            00
            ]
 502  0002              #pragma debug pointer 43 8 9
 502  0002              #pragma debug pointer 43 8 9
 502  0002              #pragma debug variable 43 9 _secDownCounter_2+0 "ptr"
 504  0002              #line 504 "d:\projects\bldc fan\remote fan final to production\global(longway)1\app.c"
 504  0000  3800     R  	snz _SEC_LOOP_FLG
 504  0001  2800     R  	jmp _L43
 504  0002              #pragma debug scope 10 9
"File: app.c         Assembler  Version HGASM0202      Page 8

 504  0002              ;begin block, line: 504.-1
 504  0002              #pragma debug scope 11 10
 504  0002              ;begin block, line: 504.-1
 506  0002              #line 506 "d:\projects\bldc fan\remote fan final to production\global(longway)1\app.c"
 506  0002  0700     R  	mov a,_secDownCounter_2[0]
 506  0003  0083        	mov mp,a
 506  0004  0700     R  	mov a,_secDownCounter_2[1]
 506  0005  0084        	mov sbp,a
 506  0006  2000     E  	call _Crom2Prom
 506  0007  0080     E  	mov ra,a
 506  0008  1E00     E  	snz ra
 506  0009  2800     R  	jmp _L43
 507  000A              #line 507 "d:\projects\bldc fan\remote fan final to production\global(longway)1\app.c"
 507  000A  1580     E  	dec ra
 507  000B  0700     E  	mov a,ra
 507  000C  0082        	mov ir,a
 507  000D              _L43:
 507  000D              #pragma debug scope 10 9
 507  000D              #pragma debug scope 9 1
 507  000D  0003        	ret
 507  000E              _secDownCounter endp
 507  000E              #line 507 "d:\projects\bldc fan\remote fan final to production\global(longway)1\app.c"
 507  000E              #pragma debug scope 1 1
 507  000E              public __250msecDownCounter
 507  000E              #pragma debug scope 12 1
 512  000E              #line 512 "d:\projects\bldc fan\remote fan final to production\global(longway)1\app.c"
 512  0000              __250msecDownCounter .section 'code'
 512  0000              __250msecDownCounter proc
 512  0000              public __250msecDownCounter_2
 512  0000  0002[           local __250msecDownCounter_2 db 2 dup(?)	; 2,0
            00
            ]
 512  0002              #pragma debug pointer 44 8 12
 512  0002              #pragma debug pointer 44 8 12
 512  0002              #pragma debug variable 44 12 __250msecDownCounter_2+0 "ptr"
 514  0002              #line 514 "d:\projects\bldc fan\remote fan final to production\global(longway)1\app.c"
 514  0000  3800     R  	snz __250MSEC_LOOP_FLG
 514  0001  2800     R  	jmp _L48
 514  0002              #pragma debug scope 13 12
 514  0002              ;begin block, line: 514.-1
 514  0002              #pragma debug scope 14 13
 514  0002              ;begin block, line: 514.-1
 516  0002              #line 516 "d:\projects\bldc fan\remote fan final to production\global(longway)1\app.c"
 516  0002  0700     R  	mov a,__250msecDownCounter_2[0]
 516  0003  0083        	mov mp,a
 516  0004  0700     R  	mov a,__250msecDownCounter_2[1]
 516  0005  0084        	mov sbp,a
 516  0006  2000     E  	call _Crom2Prom
 516  0007  0080     E  	mov ra,a
 516  0008  1E00     E  	snz ra
 516  0009  2800     R  	jmp _L48
 517  000A              #line 517 "d:\projects\bldc fan\remote fan final to production\global(longway)1\app.c"
 517  000A  1580     E  	dec ra
 517  000B  0700     E  	mov a,ra
 517  000C  0082        	mov ir,a
 517  000D              _L48:
 517  000D              #pragma debug scope 13 12
 517  000D              #pragma debug scope 12 1
 517  000D  0003        	ret
 517  000E              __250msecDownCounter endp
"File: app.c         Assembler  Version HGASM0202      Page 9

 517  000E              #line 517 "d:\projects\bldc fan\remote fan final to production\global(longway)1\app.c"
 517  000E              #pragma debug scope 1 1
 517  000E              ___lvdc equ [24]
 517  000E              ___pc equ [65]
 517  000E              public _app
 517  000E              #pragma debug scope 15 1
 156  000E              #line 156 "d:\projects\bldc fan\remote fan final to production\global(longway)1\app.c"
 156  0000              _app .section 'code'
 156  0000              _app proc
 160  0000              #line 160 "d:\projects\bldc fan\remote fan final to production\global(longway)1\app.c"
 160  0000  0F15        	mov a,21
 160  0001  0080     E  	mov ra,a
 160  0002              _L54:
 160  0002  1780     E  	sdz ra
 160  0003  2800     R  	jmp _LI1
 160  0004  2800     R  	jmp _L91
 160  0005              _LI1:
 161  0005              #line 161 "d:\projects\bldc fan\remote fan final to production\global(longway)1\app.c"
 161  0005              ;# 161 "d:\projects\bldc fan\remote fan final to production\global(longway)1\app.c" 1
 161  0005              	IF 2000>263690
 161  0005              ;# 161 "d:\projects\bldc fan\remote fan final to production\global(longway)1\app.c" 1
 161  0005              	ERRMESSAGE 'the value 2000of the argument exceeds the maxinum 263690'
 161  0005              	ENDIF
 161  0005              ;# 161 "d:\projects\bldc fan\remote fan final to production\global(longway)1\app.c" 1
 161  0005              	IF 2000<0
 161  0005              ;# 161 "d:\projects\bldc fan\remote fan final to production\global(longway)1\app.c" 1
 161  0005              	ERRMESSAGE 'the value 2000 of the argument exceeds the mininum 0'
 161  0005              	ENDIF
 161  0005              ;# 161 "d:\projects\bldc fan\remote fan final to production\global(longway)1\app.c" 1
 161  0005              	IF 2000==0
 161  0005              ;# 161 "d:\projects\bldc fan\remote fan final to production\global(longway)1\app.c" 1
 161  0005              	JMP $
 161  0005              	ENDIF
 161  0005              ;# 161 "d:\projects\bldc fan\remote fan final to production\global(longway)1\app.c" 1
 161  0005              	IF 2000==1
 161  0005              ;# 161 "d:\projects\bldc fan\remote fan final to production\global(longway)1\app.c" 1
 161  0005              	NOP
 161  0005              	ENDIF
 161  0005              ;# 161 "d:\projects\bldc fan\remote fan final to production\global(longway)1\app.c" 1
 161  0005              	IF 2000==2
 161  0005              ;# 161 "d:\projects\bldc fan\remote fan final to production\global(longway)1\app.c" 1
 161  0005              	NOP
 161  0005              ;# 161 "d:\projects\bldc fan\remote fan final to production\global(longway)1\app.c" 1
 161  0005              	NOP
 161  0005              	ENDIF
 161  0005              ;# 161 "d:\projects\bldc fan\remote fan final to production\global(longway)1\app.c" 1
 161  0005              	IF 2000==3
 161  0005              ;# 161 "d:\projects\bldc fan\remote fan final to production\global(longway)1\app.c" 1
 161  0005              	NOP
 161  0005              ;# 161 "d:\projects\bldc fan\remote fan final to production\global(longway)1\app.c" 1
 161  0005              	NOP
 161  0005              ;# 161 "d:\projects\bldc fan\remote fan final to production\global(longway)1\app.c" 1
 161  0005              	NOP
 161  0005              	ENDIF
 161  0005              ;# 161 "d:\projects\bldc fan\remote fan final to production\global(longway)1\app.c" 1
 161  0005              	IF (2000<8) AND (2000>3)
 161  0005              ;# 161 "d:\projects\bldc fan\remote fan final to production\global(longway)1\app.c" 1
 161  0005              	CALL __DELAY3 + 7 -2000
 161  0005              	ENDIF
 161  0005              ;# 161 "d:\projects\bldc fan\remote fan final to production\global(longway)1\app.c" 1
"File: app.c         Assembler  Version HGASM0202      Page 10

 161  0005              	IF (2000< 0404h) AND (2000>7)
 161  0005              ;# 161 "d:\projects\bldc fan\remote fan final to production\global(longway)1\app.c" 1
 161  0005              	MOV A,2000/4-1
 161  0005              ;# 161 "d:\projects\bldc fan\remote fan final to production\global(longway)1\app.c" 1
 161  0005              	CALL __DELAYX3 + 3 -(2000 MOD 4)
 161  0005              	ENDIF
 161  0005              ;# 161 "d:\projects\bldc fan\remote fan final to production\global(longway)1\app.c" 1
 161  0005              	IF (2000< 0x40B) AND (2000> 0403h)
 161  0005              ;# 161 "d:\projects\bldc fan\remote fan final to production\global(longway)1\app.c" 1
 161  0005              	MOV A,0 
 161  0005              ;# 161 "d:\projects\bldc fan\remote fan final to production\global(longway)1\app.c" 1
 161  0005              	CALL __DELAYX6 + 0x40a -2000
 161  0005              	ENDIF
 161  0005              ;# 161 "d:\projects\bldc fan\remote fan final to production\global(longway)1\app.c" 1
 161  0005              	IF (2000 >= 0x40b) AND ((((2000-9)%0402h)/4+1)>256)
 161  0005              ;# 161 "d:\projects\bldc fan\remote fan final to production\global(longway)1\app.c" 1
 161  0005              	MOV A,(2000-9)/0402h
 161  0005              ;# 161 "d:\projects\bldc fan\remote fan final to production\global(longway)1\app.c" 1
 161  0005              	MOV _builtin_holtek_delay_2,A
 161  0005              ;# 161 "d:\projects\bldc fan\remote fan final to production\global(longway)1\app.c" 1
 161  0005              	MOV A,0
 161  0005              ;# 161 "d:\projects\bldc fan\remote fan final to production\global(longway)1\app.c" 1
 161  0005              	CALL __DELAYY5 +5- (((2000-9)%0402h)%6)
 161  0005              	ENDIF
 161  0005              ;# 161 "d:\projects\bldc fan\remote fan final to production\global(longway)1\app.c" 1
 161  0005              	IF (2000 >= 0x40b) AND ((((2000-9)%0402h)/4+1)<=256)
 161  0005              ;# 161 "d:\projects\bldc fan\remote fan final to production\global(longway)1\app.c" 1
 161  0005  0F01        	MOV A,(2000-9)/0402h
 161  0006              ;# 161 "d:\projects\bldc fan\remote fan final to production\global(longway)1\app.c" 1
 161  0006  0080     E  	MOV _builtin_holtek_delay_2,A
 161  0007              ;# 161 "d:\projects\bldc fan\remote fan final to production\global(longway)1\app.c" 1
 161  0007  0FF2        	MOV A,((2000-9)%0402h)/4+1
 161  0008              ;# 161 "d:\projects\bldc fan\remote fan final to production\global(longway)1\app.c" 1
 161  0008  2000     E  	CALL __DELAYY3 +3-(((2000-9)%0402h)%4)
 161  0009              	ENDIF
 161  0009  2800     R  	jmp _L54
 161  000A              _L91:
 163  000A              #line 163 "d:\projects\bldc fan\remote fan final to production\global(longway)1\app.c"
 163  000A  3400     R  	clr _powerBtn
 164  000B              #line 164 "d:\projects\bldc fan\remote fan final to production\global(longway)1\app.c"
 164  000B  1F00     R  	clr _gMode[0]
 165  000C              #line 165 "d:\projects\bldc fan\remote fan final to production\global(longway)1\app.c"
 165  000C  1F00     R  	clr _TriacTimeoutFlag[0]
 165  000D  1F00     R  	clr _TriacTimeoutFlag[1]
 166  000E              #line 166 "d:\projects\bldc fan\remote fan final to production\global(longway)1\app.c"
 166  000E  0F0F        	mov a,15
 166  000F  0080     R  	mov _TriacCheckState[0],a
 167  0010              #line 167 "d:\projects\bldc fan\remote fan final to production\global(longway)1\app.c"
 167  0010  0F03        	mov a,3
 167  0011  0080     R  	mov _gDownCounterValue[0],a
 168  0012              #line 168 "d:\projects\bldc fan\remote fan final to production\global(longway)1\app.c"
 168  0012  0F00        	mov a,0
 168  0013  2000     E  	call _EEReadChar
 168  0014  0080     E  	mov ra,a
 168  0015  1100     E  	swapa ra
 168  0016  0EF0        	and a,0f0h 
 168  0017  0080     E  	mov ra,a
 168  0018  0700     R  	mov a,_FanSpeedState[0]
 168  0019  0E0F        	and a,15
 168  001A  0080     E  	mov rb,a
"File: app.c         Assembler  Version HGASM0202      Page 11

 168  001B  0700     E  	mov a,rb
 168  001C  0580     E  	orm a,ra
 168  001D  0700     E  	mov a,ra
 168  001E  0080     R  	mov _FanSpeedState[0],a
 169  001F              #line 169 "d:\projects\bldc fan\remote fan final to production\global(longway)1\app.c"
 169  001F  0700     E  	mov a,ra
 169  0020  0EF0        	and a,240
 169  0021  0080     E  	mov rc,a
 169  0022  0700     R  	mov a,_FanSpeedValue[0]
 169  0023  0080     E  	mov rb,a
 169  0024  1080     E  	sz rc
 169  0025  2800     R  	jmp _L56
 171  0026              #line 171 "d:\projects\bldc fan\remote fan final to production\global(longway)1\app.c"
 171  0026  0700     E  	mov a,rb
 171  0027  0E0F        	and a,15
 171  0028  0080     R  	mov _FanSpeedValue[0],a
 172  0029              #line 172 "d:\projects\bldc fan\remote fan final to production\global(longway)1\app.c"
 172  0029  0F0F        	mov a,15
 172  002A  0080     R  	mov _TriacState[0],a
 173  002B              #line 173 "d:\projects\bldc fan\remote fan final to production\global(longway)1\app.c"
 173  002B  0F0F        	mov a,15
 173  002C  0080     E  	mov _TRIAC_INT[0],a
 173  002D  2800     R  	jmp _L57
 173  002E              _L56:
 178  002E              #line 178 "d:\projects\bldc fan\remote fan final to production\global(longway)1\app.c"
 178  002E  0700     E  	mov a,ra
 178  002F  0E0F        	and a,15
 178  0030  0080     R  	mov _FanSpeedState[0],a
 180  0031              #line 180 "d:\projects\bldc fan\remote fan final to production\global(longway)1\app.c"
 180  0031  0F0F        	mov a,15
 180  0032  0680     E  	andm a,rb
 180  0033  0700     E  	mov a,rb
 180  0034  0D70        	or a,112
 180  0035  0080     R  	mov _FanSpeedValue[0],a
 181  0036              #line 181 "d:\projects\bldc fan\remote fan final to production\global(longway)1\app.c"
 181  0036  0F07        	mov a,7
 181  0037  0080     R  	mov _TriacState[0],a
 182  0038              #line 182 "d:\projects\bldc fan\remote fan final to production\global(longway)1\app.c"
 182  0038  0F07        	mov a,7
 182  0039  0080     E  	mov _TRIAC_INT[0],a
 182  003A              _L57:
 185  003A              #line 185 "d:\projects\bldc fan\remote fan final to production\global(longway)1\app.c"
 185  003A  339B        	set [27].7
 186  003B              #line 186 "d:\projects\bldc fan\remote fan final to production\global(longway)1\app.c"
 186  003B  0F0E        	mov a,14
 186  003C  0080     R  	mov _LED_COUNTER[0],a
 187  003D              #line 187 "d:\projects\bldc fan\remote fan final to production\global(longway)1\app.c"
 187  003D  1F00     R  	clr _TRIAC_1_TIMEOUT_COUNTER[0]
 188  003E              #line 188 "d:\projects\bldc fan\remote fan final to production\global(longway)1\app.c"
 188  003E  1F00     R  	clr _TRIAC_2_TIMEOUT_COUNTER[0]
 189  003F              #line 189 "d:\projects\bldc fan\remote fan final to production\global(longway)1\app.c"
 189  003F  1F00     R  	clr _TRIAC_3_TIMEOUT_COUNTER[0]
 195  0040              #line 195 "d:\projects\bldc fan\remote fan final to production\global(longway)1\app.c"
 195  0040  2000     R  	call _SysInit
 195  0041              _L83:
 199  0041              #line 199 "d:\projects\bldc fan\remote fan final to production\global(longway)1\app.c"
 199  0041  0700     R  	mov a,_counter_128Msec[0]
 199  0042  0080     E  	mov rb,a
 200  0043              #line 200 "d:\projects\bldc fan\remote fan final to production\global(longway)1\app.c"
 200  0043  1F00     R  	clr _counter_128Msec[0]
"File: app.c         Assembler  Version HGASM0202      Page 12

 201  0044              #line 201 "d:\projects\bldc fan\remote fan final to production\global(longway)1\app.c"
 201  0044  0700     E  	mov a,rb
 201  0045  0300     R  	add a,_secCntr[0]
 201  0046  0080     E  	mov ra,a
 201  0047  0700     E  	mov a,ra
 201  0048  0080     R  	mov _secCntr[0],a
 202  0049              #line 202 "d:\projects\bldc fan\remote fan final to production\global(longway)1\app.c"
 202  0049  0700     R  	mov a,__250msecCntr[0]
 202  004A  0380     E  	addm a,rb
 202  004B  0700     E  	mov a,rb
 202  004C  0080     R  	mov __250msecCntr[0],a
 203  004D              #line 203 "d:\projects\bldc fan\remote fan final to production\global(longway)1\app.c"
 203  004D  0F3D        	mov a,61
 203  004E  0200     E  	sub a,rb
 203  004F  3C0A        	sz c
 203  0050  2800     R  	jmp _L59
 205  0051              #line 205 "d:\projects\bldc fan\remote fan final to production\global(longway)1\app.c"
 205  0051  1F00     E  	clr _builtin_holtek_udivmodqi4_2[3]
 205  0052  0700     E  	mov a,rb
 205  0053  0080     E  	mov _builtin_holtek_udivmodqi4_2[0],a
 205  0054  0F3D        	mov a,61
 205  0055  0080     E  	mov _builtin_holtek_udivmodqi4_2[1],a
 205  0056  2000     E  	call _builtin_holtek_udivmodqi4
 205  0057  0700     E  	mov a,_builtin_holtek_udivmodqi4_2[2]
 205  0058  0080     R  	mov __250msecCntr[0],a
 206  0059              #line 206 "d:\projects\bldc fan\remote fan final to production\global(longway)1\app.c"
 206  0059  3000     R  	set __250MSEC_LOOP_FLG
 206  005A  3C00     R  	sz __250MSEC_TGL_FLG
 206  005B  2800     R  	jmp _LI2
 206  005C  3000     R  	set __250MSEC_TGL_FLG
 206  005D  2800     R  	jmp _LI3
 206  005E              _LI2:
 206  005E  3400     R  	clr __250MSEC_TGL_FLG
 206  005F              _LI3:
 208  005F              #line 208 "d:\projects\bldc fan\remote fan final to production\global(longway)1\app.c"
 208  005F  0FF4        	mov a,244
 208  0060  0200     E  	sub a,ra
 208  0061  3C0A        	sz c
 208  0062  2800     R  	jmp _L59
 210  0063              #line 210 "d:\projects\bldc fan\remote fan final to production\global(longway)1\app.c"
 210  0063  0700     E  	mov a,ra
 210  0064  0B0C        	add a,12
 210  0065  0080     R  	mov _secCntr[0],a
 211  0066              #line 211 "d:\projects\bldc fan\remote fan final to production\global(longway)1\app.c"
 211  0066  3000     R  	set _SEC_LOOP_FLG
 211  0067              _L59:
 216  0067              #line 216 "d:\projects\bldc fan\remote fan final to production\global(longway)1\app.c"
 216  0067  3800     R  	snz __250MSEC_LOOP_FLG
 216  0068  2800     R  	jmp _L62
 218  0069              #line 218 "d:\projects\bldc fan\remote fan final to production\global(longway)1\app.c"
 218  0069  0F00     E  	mov a,low offset _irData
 218  006A  0080     E  	mov _getIrRemotedata_2[0],a
 218  006B  0F00     E  	mov a,high offset _irData
 218  006C  0080     E  	mov _getIrRemotedata_2[1],a
 218  006D  2000     E  	call _getIrRemotedata
 218  006E  0080     E  	mov ra,a
 218  006F  1700     E  	sdza ra
 218  0070  2800     R  	jmp _L63
 220  0071              #line 220 "d:\projects\bldc fan\remote fan final to production\global(longway)1\app.c"
 220  0071  0F01        	mov a,1
"File: app.c         Assembler  Version HGASM0202      Page 13

 220  0072  0080     R  	mov _gMode[0],a
 220  0073              _L63:
 223  0073              #line 223 "d:\projects\bldc fan\remote fan final to production\global(longway)1\app.c"
 223  0073  0F00     R  	mov a,low offset _LED_COUNTER
 223  0074  0080     R  	mov __250msecDownCounter_2[0],a
 223  0075  0F00     R  	mov a,high offset _LED_COUNTER
 223  0076  0080     R  	mov __250msecDownCounter_2[1],a
 223  0077  2000     R  	call __250msecDownCounter
 224  0078              #line 224 "d:\projects\bldc fan\remote fan final to production\global(longway)1\app.c"
 224  0078  1080     R  	sz _LED_COUNTER[0]
 224  0079  2800     R  	jmp _L64
 224  007A  3414        	clr [20].0
 224  007B  2800     R  	jmp _L62
 224  007C              _L64:
 225  007C              #line 225 "d:\projects\bldc fan\remote fan final to production\global(longway)1\app.c"
 225  007C  1F00     E  	clr ra
 225  007D  3C00     R  	sz __250MSEC_TGL_FLG
 225  007E  3000     E  	set ra.0
 225  007F  3414        	clr [20].0
 225  0080  0700     E  	mov a,ra
 225  0081  0594        	orm a,[20]
 225  0082              _L62:
 238  0082              #line 238 "d:\projects\bldc fan\remote fan final to production\global(longway)1\app.c"
 238  0082  3800     R  	snz _TriacTimeoutFlag[0].5
 238  0083  2800     R  	jmp _L66
 240  0084              #line 240 "d:\projects\bldc fan\remote fan final to production\global(longway)1\app.c"
 240  0084  0F00     R  	mov a,low offset _TRIAC_1_TIMEOUT_COUNTER
 240  0085  0080     R  	mov __250msecDownCounter_2[0],a
 240  0086  0F00     R  	mov a,high offset _TRIAC_1_TIMEOUT_COUNTER
 240  0087  0080     R  	mov __250msecDownCounter_2[1],a
 240  0088  2000     R  	call __250msecDownCounter
 241  0089              #line 241 "d:\projects\bldc fan\remote fan final to production\global(longway)1\app.c"
 241  0089  0F00     R  	mov a,low offset _TRIAC_2_TIMEOUT_COUNTER
 241  008A  0080     R  	mov __250msecDownCounter_2[0],a
 241  008B  0F00     R  	mov a,high offset _TRIAC_2_TIMEOUT_COUNTER
 241  008C  0080     R  	mov __250msecDownCounter_2[1],a
 241  008D  2000     R  	call __250msecDownCounter
 242  008E              #line 242 "d:\projects\bldc fan\remote fan final to production\global(longway)1\app.c"
 242  008E  0F00     R  	mov a,low offset _TRIAC_3_TIMEOUT_COUNTER
 242  008F  0080     R  	mov __250msecDownCounter_2[0],a
 242  0090  0F00     R  	mov a,high offset _TRIAC_3_TIMEOUT_COUNTER
 242  0091  0080     R  	mov __250msecDownCounter_2[1],a
 242  0092  2000     R  	call __250msecDownCounter
 244  0093              #line 244 "d:\projects\bldc fan\remote fan final to production\global(longway)1\app.c"
 244  0093  1080     R  	sz _TRIAC_1_TIMEOUT_COUNTER[0]
 244  0094  2800     R  	jmp _L66
 244  0095  1080     R  	sz _TRIAC_2_TIMEOUT_COUNTER[0]
 244  0096  2800     R  	jmp _L66
 244  0097  1080     R  	sz _TRIAC_3_TIMEOUT_COUNTER[0]
 244  0098  2800     R  	jmp _L66
 246  0099              #line 246 "d:\projects\bldc fan\remote fan final to production\global(longway)1\app.c"
 246  0099  3400     R  	clr _TriacTimeoutFlag[0].5
 246  009A              _L66:
 250  009A              #line 250 "d:\projects\bldc fan\remote fan final to production\global(longway)1\app.c"
 250  009A  3A98        	snz [24].5
 250  009B  2800     R  	jmp _L68
 252  009C              #line 252 "d:\projects\bldc fan\remote fan final to production\global(longway)1\app.c"
 252  009C  0F04        	mov a,4
 252  009D  0080     R  	mov _gMode[0],a
 252  009E              _L68:
"File: app.c         Assembler  Version HGASM0202      Page 14

 258  009E              #line 258 "d:\projects\bldc fan\remote fan final to production\global(longway)1\app.c"
 258  009E  0700     R  	mov a,_gMode[0]
 258  009F  0A00        	sub a,0
 258  00A0  3D0A        	sz z
 258  00A1  2800     R  	jmp _L70
 258  00A2  0A01        	sub a,(1)-(0)
 258  00A3  3D0A        	sz z
 258  00A4  2800     R  	jmp _L71
 258  00A5  0700     R  	mov a,_gMode[0]
 258  00A6  0A02        	sub a,2
 258  00A7  3D0A        	sz z
 258  00A8  2800     R  	jmp _L72
 258  00A9  0A01        	sub a,(3)-(2)
 258  00AA  3D0A        	sz z
 258  00AB  2800     R  	jmp _L73
 258  00AC  0700     R  	mov a,_gMode[0]
 258  00AD  0A04        	sub a,4
 258  00AE  3D0A        	sz z
 258  00AF  2800     R  	jmp _L74
 258  00B0  0A02        	sub a,(6)-(4)
 258  00B1  3D0A        	sz z
 258  00B2  2800     R  	jmp _L75
 258  00B3  0700     R  	mov a,_gMode[0]
 258  00B4  0A07        	sub a,7
 258  00B5  390A        	snz z
 258  00B6  2800     R  	jmp _L69
 258  00B7  2800     R  	jmp _L92
 258  00B8              _L70:
 264  00B8              #line 264 "d:\projects\bldc fan\remote fan final to production\global(longway)1\app.c"
 264  00B8  0F00     R  	mov a,low offset _gDownCounterValue
 264  00B9  0080     R  	mov _secDownCounter_2[0],a
 264  00BA  0F00     R  	mov a,high offset _gDownCounterValue
 264  00BB  0080     R  	mov _secDownCounter_2[1],a
 264  00BC  2000     R  	call _secDownCounter
 265  00BD              #line 265 "d:\projects\bldc fan\remote fan final to production\global(longway)1\app.c"
 265  00BD  1080     R  	sz _gDownCounterValue[0]
 265  00BE  2800     R  	jmp _L69
 267  00BF              #line 267 "d:\projects\bldc fan\remote fan final to production\global(longway)1\app.c"
 267  00BF  1100     R  	swapa _FanSpeedState[0]
 267  00C0  0E0F        	and a,0fh
 267  00C1  0080     E  	mov ra,a
 267  00C2  0700     R  	mov a,_FanSpeedState[0]
 267  00C3  0EF0        	and a,240
 267  00C4  0080     E  	mov rb,a
 267  00C5  0700     E  	mov a,rb
 267  00C6  0500     E  	or a,ra
 267  00C7  0080     R  	mov _FanSpeedState[0],a
 268  00C8              #line 268 "d:\projects\bldc fan\remote fan final to production\global(longway)1\app.c"
 268  00C8  0F00        	mov a,0
 268  00C9  2000     E  	call _EEReadChar
 268  00CA  0080     E  	mov rd,a
 268  00CB  0F0F        	mov a,15
 268  00CC  0680     E  	andm a,rd
 269  00CD              #line 269 "d:\projects\bldc fan\remote fan final to production\global(longway)1\app.c"
 269  00CD  0700     E  	mov a,rd
 269  00CE  0080     E  	mov rb,a
 269  00CF  1F00     E  	clr rc
 269  00D0  0700     R  	mov a,_FanSpeedValue[0]
 269  00D1  0080     E  	mov ra,a
 269  00D2  0F07        	mov a,7
"File: app.c         Assembler  Version HGASM0202      Page 15

 269  00D3  0200     E  	sub a,rb
 269  00D4  0F00        	mov a,0
 269  00D5  1200     E  	sbc a,rc
 269  00D6  3F8A        	sz sc
 269  00D7  2800     R  	jmp _L78
 268  00D8              #line 268 "d:\projects\bldc fan\remote fan final to production\global(longway)1\app.c"
 268  00D8  1100     E  	swapa rd
 268  00D9  0EF0        	and a,0f0h 
 268  00DA  0080     E  	mov rd,a
 268  00DB  0F0F        	mov a,15
 268  00DC  0680     E  	andm a,ra
 268  00DD  0700     E  	mov a,ra
 268  00DE  0500     E  	or a,rd
 268  00DF  0080     R  	mov _FanSpeedValue[0],a
 268  00E0  2800     R  	jmp _L79
 268  00E1              _L78:
 269  00E1              #line 269 "d:\projects\bldc fan\remote fan final to production\global(longway)1\app.c"
 269  00E1  0F0F        	mov a,15
 269  00E2  0680     E  	andm a,ra
 269  00E3  0700     E  	mov a,ra
 269  00E4  0D70        	or a,112
 269  00E5  0080     R  	mov _FanSpeedValue[0],a
 269  00E6              _L79:
 270  00E6              #line 270 "d:\projects\bldc fan\remote fan final to production\global(longway)1\app.c"
 270  00E6  0F02        	mov a,2
 270  00E7  0080     R  	mov _gMode[0],a
 271  00E8              #line 271 "d:\projects\bldc fan\remote fan final to production\global(longway)1\app.c"
 271  00E8  0F02        	mov a,2
 271  00E9  0080     R  	mov _gDownCounterValue[0],a
 271  00EA  2800     R  	jmp _L69
 271  00EB              _L71:
 282  00EB              #line 282 "d:\projects\bldc fan\remote fan final to production\global(longway)1\app.c"
 282  00EB  0700     E  	mov a,_irData[0]
 282  00EC  0080     E  	mov _irKeyProcess_2[0],a
 282  00ED  0700     E  	mov a,_irData[1]
 282  00EE  0080     E  	mov _irKeyProcess_2[1],a
 282  00EF  0700     E  	mov a,_irData[2]
 282  00F0  0080     E  	mov _irKeyProcess_2[2],a
 282  00F1  0700     E  	mov a,_irData[3]
 282  00F2  0080     E  	mov _irKeyProcess_2[3],a
 282  00F3  2000     E  	call _irKeyProcess
 284  00F4              #line 284 "d:\projects\bldc fan\remote fan final to production\global(longway)1\app.c"
 284  00F4  0700     R  	mov a,_FanSpeedState[0]
 284  00F5  0400     R  	xor a,_FanSpeedValue[0]
 284  00F6  0080     E  	mov ra,a
 284  00F7  0FF0        	mov a,240
 284  00F8  0680     E  	andm a,ra
 284  00F9  1E00     E  	snz ra
 284  00FA  2800     R  	jmp _L80
 285  00FB              #line 285 "d:\projects\bldc fan\remote fan final to production\global(longway)1\app.c"
 285  00FB  0F04        	mov a,4
 285  00FC  0080     R  	mov _gDownCounterValue[0],a
 285  00FD  2800     R  	jmp _L81
 285  00FE              _L80:
 286  00FE              #line 286 "d:\projects\bldc fan\remote fan final to production\global(longway)1\app.c"
 286  00FE  1F00     R  	clr _gDownCounterValue[0]
 286  00FF              _L81:
 287  00FF              #line 287 "d:\projects\bldc fan\remote fan final to production\global(longway)1\app.c"
 287  00FF  0F02        	mov a,2
 287  0100  0080     R  	mov _gMode[0],a
"File: app.c         Assembler  Version HGASM0202      Page 16

 288  0101              #line 288 "d:\projects\bldc fan\remote fan final to production\global(longway)1\app.c"
 288  0101  1100     R  	swapa _FanSpeedValue[0]
 288  0102  0E0F        	and a,0fh
 288  0103  0080     E  	mov rb,a
 288  0104  1F00     E  	clr rc
 288  0105  340A        	clr c
 288  0106  1A80     E  	rlc rb
 288  0107  1A80     E  	rlc rc
 288  0108  1400     E  	inca rb
 288  0109  0080     R  	mov _LED_COUNTER[0],a
 291  010A              #line 291 "d:\projects\bldc fan\remote fan final to production\global(longway)1\app.c"
 291  010A  2800     R  	jmp _L69
 291  010B              _L72:
 296  010B              #line 296 "d:\projects\bldc fan\remote fan final to production\global(longway)1\app.c"
 296  010B  0F00     R  	mov a,low offset _gDownCounterValue
 296  010C  0080     R  	mov __250msecDownCounter_2[0],a
 296  010D  0F00     R  	mov a,high offset _gDownCounterValue
 296  010E  0080     R  	mov __250msecDownCounter_2[1],a
 296  010F  2000     R  	call __250msecDownCounter
 297  0110              #line 297 "d:\projects\bldc fan\remote fan final to production\global(longway)1\app.c"
 297  0110  1080     R  	sz _gDownCounterValue[0]
 297  0111  2800     R  	jmp _L69
 300  0112              #line 300 "d:\projects\bldc fan\remote fan final to production\global(longway)1\app.c"
 300  0112  2000     R  	call _checkSpeedChange
 301  0113              #line 301 "d:\projects\bldc fan\remote fan final to production\global(longway)1\app.c"
 301  0113  3C00     R  	sz _TriacTimeoutFlag[0].5
 301  0114  2800     R  	jmp _L69
 303  0115              #line 303 "d:\projects\bldc fan\remote fan final to production\global(longway)1\app.c"
 303  0115  2000     R  	call _turnoff_triac
 304  0116              #line 304 "d:\projects\bldc fan\remote fan final to production\global(longway)1\app.c"
 304  0116  0F03        	mov a,3
 304  0117  0080     R  	mov _gMode[0],a
 305  0118              #line 305 "d:\projects\bldc fan\remote fan final to production\global(longway)1\app.c"
 305  0118  0F04        	mov a,4
 305  0119  0080     R  	mov _gDownCounterValue[0],a
 306  011A              #line 306 "d:\projects\bldc fan\remote fan final to production\global(longway)1\app.c"
 306  011A  3000     R  	set _TriacTimeoutFlag[0].4
 307  011B              #line 307 "d:\projects\bldc fan\remote fan final to production\global(longway)1\app.c"
 307  011B  3000     R  	set _TriacTimeoutFlag[0].5
 307  011C  2800     R  	jmp _L69
 307  011D              _L73:
 323  011D              #line 323 "d:\projects\bldc fan\remote fan final to production\global(longway)1\app.c"
 323  011D  1080     R  	sz _gDownCounterValue[0]
 323  011E  2800     R  	jmp _L69
 326  011F              #line 326 "d:\projects\bldc fan\remote fan final to production\global(longway)1\app.c"
 326  011F  3400     R  	clr _TriacTimeoutFlag[0].4
 327  0120              #line 327 "d:\projects\bldc fan\remote fan final to production\global(longway)1\app.c"
 327  0120  2000     R  	call _turnOn_triac
 327  0121  2800     R  	jmp _L90
 327  0122              _L74:
 337  0122              #line 337 "d:\projects\bldc fan\remote fan final to production\global(longway)1\app.c"
 337  0122  0F00        	mov a,0
 337  0123  2000     E  	call _EEReadChar
 337  0124  0080     E  	mov rb,a
 337  0125  0F0F        	mov a,15
 337  0126  0680     E  	andm a,rb
 337  0127  0700     R  	mov a,_FanSpeedState[0]
 337  0128  0EF0        	and a,240
 337  0129  0080     E  	mov ra,a
 337  012A  0700     E  	mov a,ra
"File: app.c         Assembler  Version HGASM0202      Page 17

 337  012B  0500     E  	or a,rb
 337  012C  0080     R  	mov _FanSpeedState[0],a
 338  012D              #line 338 "d:\projects\bldc fan\remote fan final to production\global(longway)1\app.c"
 338  012D  1100     R  	swapa _FanSpeedValue[0]
 338  012E  0E0F        	and a,0fh
 338  012F  0080     E  	mov ra,a
 338  0130  0700     E  	mov a,rb
 338  0131  0200     E  	sub a,ra
 338  0132  3D0A        	sz z
 338  0133  2800     R  	jmp _L69
 340  0134              #line 340 "d:\projects\bldc fan\remote fan final to production\global(longway)1\app.c"
 340  0134  0700     E  	mov a,ra
 340  0135  0080     E  	mov _EEWriteChar_2[0],a
 340  0136  0F00        	mov a,0
 340  0137  2000     E  	call _EEWriteChar
 340  0138              _L90:
 341  0138              #line 341 "d:\projects\bldc fan\remote fan final to production\global(longway)1\app.c"
 341  0138  0F06        	mov a,6
 341  0139  0080     R  	mov _gMode[0],a
 341  013A  2800     R  	jmp _L69
 341  013B              _L75:
 353  013B              #line 353 "d:\projects\bldc fan\remote fan final to production\global(longway)1\app.c"
 353  013B  3894        	snz [20].1
 353  013C  2800     R  	jmp _L69
 355  013D              #line 355 "d:\projects\bldc fan\remote fan final to production\global(longway)1\app.c"
 355  013D  0F07        	mov a,7
 355  013E  0200     R  	sub a,_No_zero_cross_counter[0]
 355  013F  3C0A        	sz c
 355  0140  2800     R  	jmp _L69
 357  0141              #line 357 "d:\projects\bldc fan\remote fan final to production\global(longway)1\app.c"
 357  0141  32C1        	set [65].5
 358  0142              #line 358 "d:\projects\bldc fan\remote fan final to production\global(longway)1\app.c"
 358  0142  30C1        	set [65].1
 359  0143              #line 359 "d:\projects\bldc fan\remote fan final to production\global(longway)1\app.c"
 359  0143  3241        	set [65].4
 360  0144              #line 360 "d:\projects\bldc fan\remote fan final to production\global(longway)1\app.c"
 360  0144  3094        	set [20].1
 361  0145              #line 361 "d:\projects\bldc fan\remote fan final to production\global(longway)1\app.c"
 361  0145  0F07        	mov a,7
 361  0146  0080     R  	mov _gMode[0],a
 362  0147              #line 362 "d:\projects\bldc fan\remote fan final to production\global(longway)1\app.c"
 362  0147  0F06        	mov a,6
 362  0148  0080     R  	mov _gDownCounterValue[0],a
 363  0149              #line 363 "d:\projects\bldc fan\remote fan final to production\global(longway)1\app.c"
 363  0149  0F0F        	mov a,15
 363  014A  0080     E  	mov _TRIAC_INT[0],a
 363  014B  2800     R  	jmp _L69
 363  014C              _L92:
 372  014C              #line 372 "d:\projects\bldc fan\remote fan final to production\global(longway)1\app.c"
 372  014C  0F00     R  	mov a,low offset _gDownCounterValue
 372  014D  0080     R  	mov _secDownCounter_2[0],a
 372  014E  0F00     R  	mov a,high offset _gDownCounterValue
 372  014F  0080     R  	mov _secDownCounter_2[1],a
 372  0150  2000     R  	call _secDownCounter
 373  0151              #line 373 "d:\projects\bldc fan\remote fan final to production\global(longway)1\app.c"
 373  0151  1080     R  	sz _gDownCounterValue[0]
 373  0152  2800     R  	jmp _L69
 375  0153              #line 375 "d:\projects\bldc fan\remote fan final to production\global(longway)1\app.c"
 375  0153  0F06        	mov a,6
 375  0154  0200     R  	sub a,_No_zero_cross_counter[0]
"File: app.c         Assembler  Version HGASM0202      Page 18

 375  0155  380A        	snz c
 375  0156  2800     R  	jmp _L69
 377  0157              #line 377 "d:\projects\bldc fan\remote fan final to production\global(longway)1\app.c"
 377  0157  0F0F        	mov a,15
 377  0158  0680     R  	andm a,_FanSpeedState[0]
 378  0159              #line 378 "d:\projects\bldc fan\remote fan final to production\global(longway)1\app.c"
 378  0159  0F02        	mov a,2
 378  015A  0080     R  	mov _gMode[0],a
 378  015B              _L69:
 458  015B              #line 458 "d:\projects\bldc fan\remote fan final to production\global(longway)1\app.c"
 458  015B  3400     R  	clr __250MSEC_LOOP_FLG
 459  015C              #line 459 "d:\projects\bldc fan\remote fan final to production\global(longway)1\app.c"
 459  015C  3400     R  	clr _SEC_LOOP_FLG
 462  015D              #line 462 "d:\projects\bldc fan\remote fan final to production\global(longway)1\app.c"
 462  015D  2800     R  	jmp _L83
 462  015E  0003        	ret
 462  015F              _app endp
 462  015F              #line 462 "d:\projects\bldc fan\remote fan final to production\global(longway)1\app.c"
 462  015F              #pragma debug scope 1 1
  34  015F              #line 34 "d:\projects\bldc fan\remote fan final to production\global(longway)1\app.c"
  34  015F              public _TriacTimeoutFlag
  34  0000              @HCCINIT0_TriacTimeoutFlag .section 'data'
  34  0000  0002[       _TriacTimeoutFlag	db 2 dup(0)
            00
            ]
  34  0002              #pragma debug struct_end
  34  0002              #pragma debug struct_end
  34  0002              #pragma debug union_end
  34  0002              #pragma debug union_end
  34  0002              #pragma debug variable 46 1 _TriacTimeoutFlag "TriacTimeoutFlag"
  34  0002              
  34  0000              @HCCINIT .section 'data'
  33  0000              #line 33 "d:\projects\bldc fan\remote fan final to production\global(longway)1\app.c"
  33  0000              public _FanSpeedValue
  33  0000              @HCCINIT0_FanSpeedValue .section 'data'
  33  0000  0002[       _FanSpeedValue	db 2 dup(0)
            00
            ]
  33  0002              #pragma debug struct_end
  33  0002              #pragma debug struct_end
  33  0002              #pragma debug union_end
  33  0002              #pragma debug union_end
  33  0002              #pragma debug variable 48 1 _FanSpeedValue "FanSpeedValue"
  33  0002              
  33  0000              @HCCINIT .section 'data'
  32  0000              #line 32 "d:\projects\bldc fan\remote fan final to production\global(longway)1\app.c"
  32  0000              public _TriacCheckState
  32  0000              @HCCINIT0_TriacCheckState .section 'data'
  32  0000              _TriacCheckState	db 0
  32  0001              #pragma debug struct_end
  32  0001              #pragma debug struct_end
  32  0001              #pragma debug union_end
  32  0001              #pragma debug union_end
  32  0001              #pragma debug variable 50 1 _TriacCheckState "TriacCheckState"
  32  0001              
  32  0000              @HCCINIT .section 'data'
  31  0000              #line 31 "d:\projects\bldc fan\remote fan final to production\global(longway)1\app.c"
  31  0000              public _FanSpeedState
  31  0000              @HCCINIT0_FanSpeedState .section 'data'
  31  0000  0002[       _FanSpeedState	db 2 dup(0)
"File: app.c         Assembler  Version HGASM0202      Page 19

            00
            ]
  31  0002              #pragma debug variable 48 1 _FanSpeedState "FanSpeedState"
  31  0002              
  31  0000              @HCCINIT .section 'data'
  30  0000              #line 30 "d:\projects\bldc fan\remote fan final to production\global(longway)1\app.c"
  30  0000              public _TriacState
  30  0000              @HCCINIT0_TriacState .section 'data'
  30  0000              _TriacState	db 0
  30  0001              #pragma debug variable 50 1 _TriacState "TriacState"
  30  0001              
  30  0000              @HCCINIT .section 'data'
  25  0000              #line 25 "d:\projects\bldc fan\remote fan final to production\global(longway)1\app.c"
  25  0000              public _LED_COUNTER
  25  0000              @HCCINIT0_LED_COUNTER .section 'data'
  25  0000              _LED_COUNTER	db 0
  25  0001              #pragma debug variable 8 1 _LED_COUNTER "LED_COUNTER"
  25  0001              
  25  0000              @HCCINIT .section 'data'
  25  0000              #line 25 "d:\projects\bldc fan\remote fan final to production\global(longway)1\app.c"
  25  0000              public _TRIAC_3_TIMEOUT_COUNTER
  25  0000              @HCCINIT0_TRIAC_3_TIMEOUT_COUNTER .section 'data'
  25  0000              _TRIAC_3_TIMEOUT_COUNTER	db 0
  25  0001              #pragma debug variable 8 1 _TRIAC_3_TIMEOUT_COUNTER "TRIAC_3_TIMEOUT_COUNTER"
  25  0001              
  25  0000              @HCCINIT .section 'data'
  25  0000              #line 25 "d:\projects\bldc fan\remote fan final to production\global(longway)1\app.c"
  25  0000              public _TRIAC_2_TIMEOUT_COUNTER
  25  0000              @HCCINIT0_TRIAC_2_TIMEOUT_COUNTER .section 'data'
  25  0000              _TRIAC_2_TIMEOUT_COUNTER	db 0
  25  0001              #pragma debug variable 8 1 _TRIAC_2_TIMEOUT_COUNTER "TRIAC_2_TIMEOUT_COUNTER"
  25  0001              
  25  0000              @HCCINIT .section 'data'
  25  0000              #line 25 "d:\projects\bldc fan\remote fan final to production\global(longway)1\app.c"
  25  0000              public _TRIAC_1_TIMEOUT_COUNTER
  25  0000              @HCCINIT0_TRIAC_1_TIMEOUT_COUNTER .section 'data'
  25  0000              _TRIAC_1_TIMEOUT_COUNTER	db 0
  25  0001              #pragma debug variable 8 1 _TRIAC_1_TIMEOUT_COUNTER "TRIAC_1_TIMEOUT_COUNTER"
  25  0001              
  25  0000              @HCCINIT .section 'data'
  25  0000              #line 25 "d:\projects\bldc fan\remote fan final to production\global(longway)1\app.c"
  25  0000              public _gDownCounterValue
  25  0000              @HCCINIT0_gDownCounterValue .section 'data'
  25  0000              _gDownCounterValue	db 0
  25  0001              #pragma debug variable 8 1 _gDownCounterValue "gDownCounterValue"
  25  0001              
  25  0000              @HCCINIT .section 'data'
  24  0000              #line 24 "d:\projects\bldc fan\remote fan final to production\global(longway)1\app.c"
  24  0000              public _gMode
  24  0000              @HCCINIT0_gMode .section 'data'
  24  0000              _gMode	db 0
  24  0001              #pragma debug variable 8 1 _gMode "gMode"
  24  0001              
  24  0000              @HCCINIT .section 'data'
  24  0000              public _No_zero_cross_counter
  24  0000              @HCCINIT	.section 'data'
  23  0000              #line 23 "d:\projects\bldc fan\remote fan final to production\global(longway)1\app.c"
  23  0000              @HCCINIT_No_zero_cross_counter .section 'data'
  23  0000              _No_zero_cross_counter label byte
  23  0000              #pragma debug variable 8 1 _No_zero_cross_counter "No_zero_cross_counter"
"File: app.c         Assembler  Version HGASM0202      Page 20

  23  0000              	db 0
  23  0000              @ROMDATA_BASE .section inpage 'code'
  23  0000              	db 0
  23  0001              @HCCINIT_No_zero_cross_counter .section 'data'
  23  0001              public _secCntr
  22  0001              #line 22 "d:\projects\bldc fan\remote fan final to production\global(longway)1\app.c"
  22  0000              @HCCINIT_secCntr .section 'data'
  22  0000              _secCntr label byte
  22  0000              #pragma debug variable 8 1 _secCntr "secCntr"
  22  0000              	db 0
  22  0001              @ROMDATA_BASE .section inpage 'code'
  22  0001              	db 0
  22  0001              @HCCINIT_secCntr .section 'data'
  22  0001              public _counter_128Msec
  22  0001              #line 22 "d:\projects\bldc fan\remote fan final to production\global(longway)1\app.c"
  22  0000              @HCCINIT_counter_128Msec .section 'data'
  22  0000              _counter_128Msec label byte
  22  0000              #pragma debug variable 8 1 _counter_128Msec "counter_128Msec"
  22  0000              	db 0
  22  0001              @ROMDATA_BASE .section inpage 'code'
  22  0001              	db 0
  22  0001              @HCCINIT_counter_128Msec .section 'data'
  22  0001              public __250msecCntr
  22  0001              #line 22 "d:\projects\bldc fan\remote fan final to production\global(longway)1\app.c"
  22  0000              @HCCINIT__250msecCntr .section 'data'
  22  0000              __250msecCntr label byte
  22  0000              #pragma debug variable 8 1 __250msecCntr "_250msecCntr"
  22  0000              	db 0
  22  0002              @ROMDATA_BASE .section inpage 'code'
  22  0002              	db 0
  22  0001              @HCCINIT__250msecCntr .section 'data'
  22  0001              public _powerBtn
  20  0001              #line 20 "d:\projects\bldc fan\remote fan final to production\global(longway)1\app.c"
  20  0000              @BITDATASEC .section 'data'
  20  0000  00          _powerBtn	dbit 0
  20  0001              #pragma debug variable 2 1 _powerBtn "powerBtn"
  19  0001              #line 19 "d:\projects\bldc fan\remote fan final to production\global(longway)1\app.c"
  19  0001              public __250MSEC_LOOP_FLG
  19  0001              @BITDATASEC .section 'data'
  19  0000              __250MSEC_LOOP_FLG	dbit 0
  19  0001              #pragma debug variable 2 1 __250MSEC_LOOP_FLG "_250MSEC_LOOP_FLG"
  19  0001              
  19  0000              @HCCINIT .section 'data'
  19  0000              #line 19 "d:\projects\bldc fan\remote fan final to production\global(longway)1\app.c"
  19  0000              public __250MSEC_TGL_FLG
  19  0001              @BITDATASEC .section 'data'
  19  0000              __250MSEC_TGL_FLG	dbit 0
  19  0001              #pragma debug variable 2 1 __250MSEC_TGL_FLG "_250MSEC_TGL_FLG"
  19  0001              
  19  0000              @HCCINIT .section 'data'
  19  0000              #line 19 "d:\projects\bldc fan\remote fan final to production\global(longway)1\app.c"
  19  0000              public _SEC_LOOP_FLG
  19  0001              @BITDATASEC .section 'data'
  19  0000              _SEC_LOOP_FLG	dbit 0
  19  0001              #pragma debug variable 2 1 _SEC_LOOP_FLG "SEC_LOOP_FLG"
  19  0001              
  19  0000              @HCCINIT .section 'data'
  19  0000              #pragma debug struct_end
  19  0000              #pragma debug struct_end
  19  0000              #pragma debug union_end
"File: app.c         Assembler  Version HGASM0202      Page 21

  19  0000              #pragma debug union_end
  19  0000              #pragma debug variable 52 1 ___intc1 "__intc1" 1
  19  0000              #pragma debug struct_end
  19  0000              #pragma debug struct_end
  19  0000              #pragma debug union_end
  19  0000              #pragma debug union_end
  19  0000              #pragma debug variable 54 1 ___pa "__pa" 1
  19  0000              #pragma debug struct_end
  19  0000              #pragma debug struct_end
  19  0000              #pragma debug union_end
  19  0000              #pragma debug union_end
  19  0000              #pragma debug variable 56 1 ___lvdc "__lvdc" 1
  19  0000              #pragma debug struct_end
  19  0000              #pragma debug struct_end
  19  0000              #pragma debug union_end
  19  0000              #pragma debug union_end
  19  0000              #pragma debug variable 58 1 ___tb0c "__tb0c" 1
  19  0000              #pragma debug struct_end
  19  0000              #pragma debug struct_end
  19  0000              #pragma debug union_end
  19  0000              #pragma debug union_end
  19  0000              #pragma debug variable 60 1 ___pc "__pc" 1
  19  0000              
  19  0000              ; output external variables
  19  0000              extern _irData:byte
  19  0000              extern _TRIAC_INT:byte
  19  0000              extern r1:byte
  19  0000              extern r2:byte
  19  0000              extern _EEReadChar:near
  19  0000              extern _builtin_holtek_udivmodqi4_2:byte
  19  0000              extern _builtin_holtek_udivmodqi4:near
  19  0000              extern _getIrRemotedata_2:byte
  19  0000              extern _getIrRemotedata:near
  19  0000              extern _irKeyProcess_2:byte
  19  0000              extern _irKeyProcess:near
  19  0000              extern _EEWriteChar_2:byte
  19  0000              extern _EEWriteChar:near
  19  0000              
  19  0000              ; 
  19  0000              ; Generated by holtek-gcc v3.19, Tue Apr 05 13:18:22 2022
  19  0000              ; Rebuild 718
  19  0000              ; end of file


        0 Errors, 0