"File: ee_mem.c      Assembler  Version HGASM0202      Page 1


   1  0000              ; Generated by holtek-gcc v3.19, Tue Apr 05 13:18:21 2022
   2  0000              ; 
   3  0000              ; Configuration:
   4  0000              ;       with long instruction
   5  0000              ;       Single ROM, Multi-RAM
   6  0000              ;       bits_per_rom_unit:16
   7  0000              ;       with mp1
   8  0000              ;       with tbhp, address(0x9)
   9  0000              ;          Use tabrd-const
  10  0000              ;       
  11  0000              ; SFR address of long-instruction arch:
  12  0000              ;    mp0 = -1,1,0
  13  0000              ;    mp1 = 4,3,2
  14  0000              ;    mp2 = 14,13,12
  15  0000              ;    tbp = 9,7,8
  16  0000              ;    acc = 5
  17  0000              ;    pcl = 6
  18  0000              ;    status = 10
  19  0000              ;    bp = 11
  20  0000              ;    intc = 17
  21  0000              ;       
  22  0000              ;       
  23  0000              ; use 'tabrdc' instead of 'tabrd'
  24  0000              ;       
  25  0000              
  26  0000              #pragma translator "holtek-gcc 4.6.4" "3.19" "build 20130711"
  27  0000              ; Rebuild 718
  28  0000              
  29  0000              ir equ [2]
  30  0000              mp equ [3]
  31  0000              sbp equ [4]
  32  0000              acc equ [5]
  33  0000              bp equ [11]
  34  0000              tblp equ [7]
  35  0000              tbhp equ [9]
  36  0000              status equ [10]
  37  0000              c equ [10].0
  38  0000              ac equ [10].1
  39  0000              z equ [10].2
  40  0000              ov equ [10].3
  41  0000              cz equ [10].6
  42  0000              sc equ [10].7
  43  0000              intc equ [17]
  44  0000              
  45  0000              extern ra:byte
  46  0000              extern rb:byte
  47  0000              extern rc:byte
  48  0000              extern rd:byte
  49  0000              extern re:byte
  50  0000              extern rf:byte
  51  0000              extern rg:byte
  52  0000              extern rh:byte
  53  0000              extern _Crom2Prom:near
  54  0000              extern _Crom2PromNext:near
  55  0000              
  56  0000              RAMBANK 0 @BITDATASEC, @BITDATASEC1
  57  0000              @HCCINIT	.section 'data'
  58  0000              @HCCINIT0	.section 'data'
  59  0000              @BITDATASEC	 .section 'data'
"File: ee_mem.ASM    Assembler  Version HGASM0202      Page 2

  60  0000              @BITDATASEC1	 .section 'data'
  61  0000              
  62  0000              #pragma debug scope 1 1
  63  0000              	extern __DELAY3:near
  64  0000              	extern __DELAYX3:near
  65  0000              	extern __DELAYX6:near
  66  0000              	extern __DELAYY5:near
  67  0000              	extern __DELAYY3:near
  68  0000              	extern _builtin_holtek_delay_2:byte
  69  0000              ___mp2h equ [14]
  70  0000              ___mp2l equ [13]
  71  0000              ___iar2 equ [12]
  72  0000              ___eea equ [30]
  73  0000              ___eed equ [31]
  74  0000              public _EEReadChar
  75  0000              #pragma debug scope 2 1

   8  0000              #line 8 "d:\projects\bldc fan\remote fan final to production\global(longway)1\ee_mem.c"
   8  0000              _EEReadChar .section 'code'
   8  0000              _EEReadChar proc
   8  0000  00              local _EEReadChar_2 db 1 dup(?)	; 0,1
   8  0000  0080     R  	mov _EEReadChar_2[0],a
   8  0001              #pragma debug variable 8 2 _EEReadChar_2+0 "adr"
  13  0001              #line 13 "d:\projects\bldc fan\remote fan final to production\global(longway)1\ee_mem.c"
  13  0001  0F01        	mov a,1
  13  0002  008E        	mov [14],a
  14  0003              #line 14 "d:\projects\bldc fan\remote fan final to production\global(longway)1\ee_mem.c"
  14  0003  0F40        	mov a,64
  14  0004  008D        	mov [13],a
  16  0005              #line 16 "d:\projects\bldc fan\remote fan final to production\global(longway)1\ee_mem.c"
  16  0005  070C        	mov a,[12]
  16  0006  0080     E  	mov ra,a
  18  0007              #line 18 "d:\projects\bldc fan\remote fan final to production\global(longway)1\ee_mem.c"
  18  0007  0F6F        	mov a,111
  18  0008  068C        	andm a,[12]
  21  0009              #line 21 "d:\projects\bldc fan\remote fan final to production\global(longway)1\ee_mem.c"
  21  0009  0700     R  	mov a,_EEReadChar_2[0]
  21  000A  009E        	mov [30],a
  24  000B              #line 24 "d:\projects\bldc fan\remote fan final to production\global(longway)1\ee_mem.c"
  24  000B  308C        	set [12].1
  25  000C              #line 25 "d:\projects\bldc fan\remote fan final to production\global(longway)1\ee_mem.c"
  25  000C  300C        	set [12].0
  25  000D              _L3:
  28  000D              #line 28 "d:\projects\bldc fan\remote fan final to production\global(longway)1\ee_mem.c"
  28  000D  3C0C        	sz [12].0
  28  000E  2800     R  	jmp _L3
  29  000F              #line 29 "d:\projects\bldc fan\remote fan final to production\global(longway)1\ee_mem.c"
  29  000F  0700     E  	mov a,ra
  29  0010  008C        	mov [12],a
  30  0011              #line 30 "d:\projects\bldc fan\remote fan final to production\global(longway)1\ee_mem.c"
  30  0011  1F0E        	clr [14]
  32  0012              #line 32 "d:\projects\bldc fan\remote fan final to production\global(longway)1\ee_mem.c"
  32  0012  071F        	mov a,[31]
  32  0013  0080     E  	mov ra,a
  36  0014              #line 36 "d:\projects\bldc fan\remote fan final to production\global(longway)1\ee_mem.c"
  36  0014  0700     E  	mov a,ra
  36  0015  0003        	ret
  36  0016              _EEReadChar endp
  36  0016              #line 36 "d:\projects\bldc fan\remote fan final to production\global(longway)1\ee_mem.c"
  36  0016              #pragma debug scope 1 1
"File: ee_mem.c      Assembler  Version HGASM0202      Page 3

  36  0016              ___intc0 equ [17]
  36  0016              public _EEWriteChar
  36  0016              #pragma debug scope 3 1
  41  0016              #line 41 "d:\projects\bldc fan\remote fan final to production\global(longway)1\ee_mem.c"
  41  0000              _EEWriteChar .section 'code'
  41  0000              _EEWriteChar proc
  41  0000              public _EEWriteChar_2
  41  0000  0002[           local _EEWriteChar_2 db 2 dup(?)	; 1,1
            00
            ]
  41  0000  0080     R  	mov _EEWriteChar_2[1],a
  41  0001              #pragma debug variable 8 3 _EEWriteChar_2+1 "adr"
  41  0001              #pragma debug variable 8 3 _EEWriteChar_2+0 "Data"
  45  0001              #line 45 "d:\projects\bldc fan\remote fan final to production\global(longway)1\ee_mem.c"
  45  0001  0711        	mov a,[17]
  45  0002  0E01        	and a,1
  45  0003  0080     E  	mov rb,a
  48  0004              #line 48 "d:\projects\bldc fan\remote fan final to production\global(longway)1\ee_mem.c"
  48  0004  0F01        	mov a,1
  48  0005  008E        	mov [14],a
  50  0006              #line 50 "d:\projects\bldc fan\remote fan final to production\global(longway)1\ee_mem.c"
  50  0006  0F40        	mov a,64
  50  0007  008D        	mov [13],a
  52  0008              #line 52 "d:\projects\bldc fan\remote fan final to production\global(longway)1\ee_mem.c"
  52  0008  070C        	mov a,[12]
  52  0009  0080     E  	mov ra,a
  54  000A              #line 54 "d:\projects\bldc fan\remote fan final to production\global(longway)1\ee_mem.c"
  54  000A  0F6F        	mov a,111
  54  000B  068C        	andm a,[12]
  56  000C              #line 56 "d:\projects\bldc fan\remote fan final to production\global(longway)1\ee_mem.c"
  56  000C  0700     R  	mov a,_EEWriteChar_2[1]
  56  000D  009E        	mov [30],a
  59  000E              #line 59 "d:\projects\bldc fan\remote fan final to production\global(longway)1\ee_mem.c"
  59  000E  0700     R  	mov a,_EEWriteChar_2[0]
  59  000F  009F        	mov [31],a
  66  0010              #line 66 "d:\projects\bldc fan\remote fan final to production\global(longway)1\ee_mem.c"
  66  0010  338C        	set [12].7
  70  0011              #line 70 "d:\projects\bldc fan\remote fan final to production\global(longway)1\ee_mem.c"
  70  0011  3411        	clr [17].0
  72  0012              #line 72 "d:\projects\bldc fan\remote fan final to production\global(longway)1\ee_mem.c"
  72  0012  318C        	set [12].3
  73  0013              #line 73 "d:\projects\bldc fan\remote fan final to production\global(longway)1\ee_mem.c"
  73  0013  310C        	set [12].2
  75  0014              #line 75 "d:\projects\bldc fan\remote fan final to production\global(longway)1\ee_mem.c"
  75  0014  3411        	clr [17].0
  75  0015  0700     E  	mov a,rb
  75  0016  0591        	orm a,[17]
  75  0017              _L7:
  78  0017              #line 78 "d:\projects\bldc fan\remote fan final to production\global(longway)1\ee_mem.c"
  78  0017  3D0C        	sz [12].2
  78  0018  2800     R  	jmp _L7
  79  0019              #line 79 "d:\projects\bldc fan\remote fan final to production\global(longway)1\ee_mem.c"
  79  0019  0700     E  	mov a,ra
  79  001A  008C        	mov [12],a
  80  001B              #line 80 "d:\projects\bldc fan\remote fan final to production\global(longway)1\ee_mem.c"
  80  001B  1F0E        	clr [14]
  80  001C  0003        	ret
  80  001D              _EEWriteChar endp
  80  001D              #line 80 "d:\projects\bldc fan\remote fan final to production\global(longway)1\ee_mem.c"
  80  001D              #pragma debug scope 1 1
"File: ee_mem.c      Assembler  Version HGASM0202      Page 4

  80  001D              public _writeDataFlashInt
  80  001D              #pragma debug scope 4 1
 101  001D              #line 101 "d:\projects\bldc fan\remote fan final to production\global(longway)1\ee_mem.c"
 101  0000              _writeDataFlashInt .section 'code'
 101  0000              _writeDataFlashInt proc
 101  0000              public _writeDataFlashInt_2
 101  0000  0003[           local _writeDataFlashInt_2 db 3 dup(?)	; 2,1
            00
            ]
 101  0000  0080     E  	mov ra,a
 101  0001  0080     R  	mov _writeDataFlashInt_2[2],a
 101  0002              #pragma debug variable 8 4 _writeDataFlashInt_2+2 "startadd"
 101  0002              #pragma debug variable 12 4 _writeDataFlashInt_2+0 "value"
 103  0002              #line 103 "d:\projects\bldc fan\remote fan final to production\global(longway)1\ee_mem.c"
 103  0002  0700     R  	mov a,_writeDataFlashInt_2[0]
 103  0003  0080     R  	mov _EEWriteChar_2[0],a
 103  0004  0700     E  	mov a,ra
 103  0005  2000     R  	call _EEWriteChar
 104  0006              #line 104 "d:\projects\bldc fan\remote fan final to production\global(longway)1\ee_mem.c"
 104  0006  1400     R  	inca _writeDataFlashInt_2[2]
 104  0007  0080     E  	mov ra,a
 104  0008  0700     R  	mov a,_writeDataFlashInt_2[1]
 104  0009  0080     R  	mov _EEWriteChar_2[0],a
 104  000A  0700     E  	mov a,ra
 104  000B  2000     R  	call _EEWriteChar
 104  000C  0003        	ret
 104  000D              _writeDataFlashInt endp
 104  000D              #line 104 "d:\projects\bldc fan\remote fan final to production\global(longway)1\ee_mem.c"
 104  000D              #pragma debug scope 1 1
 104  000D              public _readDataFlashInt
 104  000D              #pragma debug scope 5 1
 112  000D              #line 112 "d:\projects\bldc fan\remote fan final to production\global(longway)1\ee_mem.c"
 112  0000              _readDataFlashInt .section 'code'
 112  0000              _readDataFlashInt proc
 112  0000  0003[           local _readDataFlashInt_2 db 3 dup(?)	; 0,3
            00
            ]
 112  0000  0080     E  	mov ra,a
 112  0001  0080     R  	mov _readDataFlashInt_2[0],a
 112  0002              #pragma debug variable 8 5 _readDataFlashInt_2+0 "addr"
 116  0002              #line 116 "d:\projects\bldc fan\remote fan final to production\global(longway)1\ee_mem.c"
 116  0002  0700     E  	mov a,ra
 116  0003  2000     R  	call _EEReadChar
 116  0004  0080     E  	mov ra,a
 116  0005  0700     E  	mov a,ra
 116  0006  0080     R  	mov _readDataFlashInt_2[1],a
 116  0007  1F00     R  	clr _readDataFlashInt_2[2]
 116  0008  1400     R  	inca _readDataFlashInt_2[0]
 116  0009  0080     E  	mov ra,a
 117  000A              #line 117 "d:\projects\bldc fan\remote fan final to production\global(longway)1\ee_mem.c"
 117  000A  0700     E  	mov a,ra
 117  000B  2000     R  	call _EEReadChar
 117  000C  0080     E  	mov ra,a
 117  000D  0700     E  	mov a,ra
 117  000E  0080     E  	mov rc,a
 117  000F  1F00     E  	clr rb
 120  0010              #line 120 "d:\projects\bldc fan\remote fan final to production\global(longway)1\ee_mem.c"
 120  0010  0700     E  	mov a,rc
 120  0011  0500     R  	or a,_readDataFlashInt_2[2]
 120  0012  0080     E  	mov re,a
"File: ee_mem.c      Assembler  Version HGASM0202      Page 5

 120  0013  0700     E  	mov a,rb
 120  0014  0500     R  	or a,_readDataFlashInt_2[1]
 120  0015  0080     E  	mov rd,a
 120  0016  0700     E  	mov a,rd
 120  0017  0080     E  	mov ra,a
 120  0018  0700     E  	mov a,re
 120  0019  0080     E  	mov rb,a
 120  001A  0003        	ret
 120  001B              _readDataFlashInt endp
 120  001B              #line 120 "d:\projects\bldc fan\remote fan final to production\global(longway)1\ee_mem.c"
 120  001B              #pragma debug scope 1 1
 120  001B              public _EEPROM_Erase_page
 120  001B              #pragma debug scope 6 1
 131  001B              #line 131 "d:\projects\bldc fan\remote fan final to production\global(longway)1\ee_mem.c"
 131  0000              _EEPROM_Erase_page .section 'code'
 131  0000              _EEPROM_Erase_page proc
 131  0000              public _EEPROM_Erase_page_2
 131  0000  0002[           local _EEPROM_Erase_page_2 db 2 dup(?)	; 1,1
            00
            ]
 131  0000  0080     R  	mov _EEPROM_Erase_page_2[1],a
 131  0001              #pragma debug variable 8 6 _EEPROM_Erase_page_2+1 "page"
 131  0001              #pragma debug variable 8 6 _EEPROM_Erase_page_2+0 "len"
 137  0001              #line 137 "d:\projects\bldc fan\remote fan final to production\global(longway)1\ee_mem.c"
 137  0001  0711        	mov a,[17]
 137  0002  0E01        	and a,1
 137  0003  0080     E  	mov rc,a
 140  0004              #line 140 "d:\projects\bldc fan\remote fan final to production\global(longway)1\ee_mem.c"
 140  0004  0F01        	mov a,1
 140  0005  008E        	mov [14],a
 142  0006              #line 142 "d:\projects\bldc fan\remote fan final to production\global(longway)1\ee_mem.c"
 142  0006  0F40        	mov a,64
 142  0007  008D        	mov [13],a
 143  0008              #line 143 "d:\projects\bldc fan\remote fan final to production\global(longway)1\ee_mem.c"
 143  0008  070C        	mov a,[12]
 143  0009  0080     E  	mov rb,a
 145  000A              #line 145 "d:\projects\bldc fan\remote fan final to production\global(longway)1\ee_mem.c"
 145  000A  0F6F        	mov a,111
 145  000B  068C        	andm a,[12]
 148  000C              #line 148 "d:\projects\bldc fan\remote fan final to production\global(longway)1\ee_mem.c"
 148  000C  0700     R  	mov a,_EEPROM_Erase_page_2[1]
 148  000D  0080     E  	mov ra,a
 148  000E  1100     E  	swapa ra
 148  000F  0EF0        	and a,0f0h 
 148  0010  0080     E  	mov ra,a
 148  0011  0700     E  	mov a,ra
 148  0012  009E        	mov [30],a
 155  0013              #line 155 "d:\projects\bldc fan\remote fan final to production\global(longway)1\ee_mem.c"
 155  0013  338C        	set [12].7
 160  0014              #line 160 "d:\projects\bldc fan\remote fan final to production\global(longway)1\ee_mem.c"
 160  0014  320C        	set [12].4
 160  0015  0F10        	mov a,16
 160  0016  0080     E  	mov ra,a
 160  0017              _L12:
 163  0017              #line 163 "d:\projects\bldc fan\remote fan final to production\global(longway)1\ee_mem.c"
 163  0017  0F55        	mov a,85
 163  0018  009F        	mov [31],a
 163  0019  1780     E  	sdz ra
 163  001A  2800     R  	jmp _L12
 165  001B              #line 165 "d:\projects\bldc fan\remote fan final to production\global(longway)1\ee_mem.c"
"File: ee_mem.c      Assembler  Version HGASM0202      Page 6

 165  001B  0F01        	mov a,1
 165  001C  008E        	mov [14],a
 166  001D              #line 166 "d:\projects\bldc fan\remote fan final to production\global(longway)1\ee_mem.c"
 166  001D  0F40        	mov a,64
 166  001E  008D        	mov [13],a
 168  001F              #line 168 "d:\projects\bldc fan\remote fan final to production\global(longway)1\ee_mem.c"
 168  001F  3411        	clr [17].0
 171  0020              #line 171 "d:\projects\bldc fan\remote fan final to production\global(longway)1\ee_mem.c"
 171  0020  330C        	set [12].6
 172  0021              #line 172 "d:\projects\bldc fan\remote fan final to production\global(longway)1\ee_mem.c"
 172  0021  328C        	set [12].5
 174  0022              #line 174 "d:\projects\bldc fan\remote fan final to production\global(longway)1\ee_mem.c"
 174  0022  3411        	clr [17].0
 174  0023  0700     E  	mov a,rc
 174  0024  0591        	orm a,[17]
 174  0025              _L14:
 176  0025              #line 176 "d:\projects\bldc fan\remote fan final to production\global(longway)1\ee_mem.c"
 176  0025  3E8C        	sz [12].5
 176  0026  2800     R  	jmp _L14
 177  0027              #line 177 "d:\projects\bldc fan\remote fan final to production\global(longway)1\ee_mem.c"
 177  0027  0700     E  	mov a,rb
 177  0028  008C        	mov [12],a
 178  0029              #line 178 "d:\projects\bldc fan\remote fan final to production\global(longway)1\ee_mem.c"
 178  0029  1F0E        	clr [14]
 178  002A  0003        	ret
 178  002B              _EEPROM_Erase_page endp
 178  002B              #line 178 "d:\projects\bldc fan\remote fan final to production\global(longway)1\ee_mem.c"
 178  002B              #pragma debug scope 1 1
 178  002B              public _EERROM_eraseChip
 178  002B              #pragma debug scope 7 1
 185  002B              #line 185 "d:\projects\bldc fan\remote fan final to production\global(longway)1\ee_mem.c"
 185  0000              _EERROM_eraseChip .section 'code'
 185  0000              _EERROM_eraseChip proc
 185  0000  00              local _EERROM_eraseChip_2 db 1 dup(?)	; 0,1
 185  0001              #pragma debug variable 8 7 _EERROM_eraseChip_2+0 "page"
 187  0001              #line 187 "d:\projects\bldc fan\remote fan final to production\global(longway)1\ee_mem.c"
 187  0000  1F00     R  	clr _EERROM_eraseChip_2[0]
 187  0001              _L17:
 188  0001              #line 188 "d:\projects\bldc fan\remote fan final to production\global(longway)1\ee_mem.c"
 188  0001  0F10        	mov a,16
 188  0002  0080     R  	mov _EEPROM_Erase_page_2[0],a
 188  0003  0700     R  	mov a,_EERROM_eraseChip_2[0]
 188  0004  2000     R  	call _EEPROM_Erase_page
 187  0005              #line 187 "d:\projects\bldc fan\remote fan final to production\global(longway)1\ee_mem.c"
 187  0005  1480     R  	inc _EERROM_eraseChip_2[0]
 187  0006  0700     R  	mov a,_EERROM_eraseChip_2[0]
 187  0007  0A08        	sub a,8
 187  0008  390A        	snz z
 187  0009  2800     R  	jmp _L17
 187  000A  0003        	ret
 187  000B              _EERROM_eraseChip endp
 187  000B              #line 187 "d:\projects\bldc fan\remote fan final to production\global(longway)1\ee_mem.c"
 187  000B              #pragma debug scope 1 1
 187  000B              #pragma debug variable 8 1 ___mp2l "__mp2l" 1
 187  000B              #pragma debug variable 8 1 ___mp2h "__mp2h" 1
 187  000B              #pragma debug struct_end
 187  000B              #pragma debug struct_end
 187  000B              #pragma debug union_end
 187  000B              #pragma debug union_end
 187  000B              #pragma debug variable 43 1 ___intc0 "__intc0" 1
"File: ee_mem.c      Assembler  Version HGASM0202      Page 7

 187  000B              #pragma debug struct_end
 187  000B              #pragma debug struct_end
 187  000B              #pragma debug union_end
 187  000B              #pragma debug union_end
 187  000B              #pragma debug variable 45 1 ___eea "__eea" 1
 187  000B              #pragma debug variable 8 1 ___eed "__eed" 1
 187  000B              #pragma debug variable 8 1 ___iar2 "__iar2" 1
 187  000B              
 187  000B              ; 
 187  000B              ; Generated by holtek-gcc v3.19, Tue Apr 05 13:18:21 2022
 187  000B              ; Rebuild 718
 187  000B              ; end of file


        0 Errors, 0