"File: irRemote.c    Assembler  Version HGASM0202      Page 1


   1  0000              ; Generated by holtek-gcc v3.19, Tue Apr 05 13:18:21 2022
   2  0000              ; 
   3  0000              ; Configuration:
   4  0000              ;       with long instruction
   5  0000              ;       Single ROM, Multi-RAM
   6  0000              ;       bits_per_rom_unit:16
   7  0000              ;       with mp1
   8  0000              ;       with tbhp, address(0x9)
   9  0000              ;          Use tabrd-const
  10  0000              ;       
  11  0000              ; SFR address of long-instruction arch:
  12  0000              ;    mp0 = -1,1,0
  13  0000              ;    mp1 = 4,3,2
  14  0000              ;    mp2 = 14,13,12
  15  0000              ;    tbp = 9,7,8
  16  0000              ;    acc = 5
  17  0000              ;    pcl = 6
  18  0000              ;    status = 10
  19  0000              ;    bp = 11
  20  0000              ;    intc = 17
  21  0000              ;       
  22  0000              ;       
  23  0000              ; use 'tabrdc' instead of 'tabrd'
  24  0000              ;       
  25  0000              
  26  0000              #pragma translator "holtek-gcc 4.6.4" "3.19" "build 20130711"
  27  0000              ; Rebuild 718
  28  0000              
  29  0000              ir equ [2]
  30  0000              mp equ [3]
  31  0000              sbp equ [4]
  32  0000              acc equ [5]
  33  0000              bp equ [11]
  34  0000              tblp equ [7]
  35  0000              tbhp equ [9]
  36  0000              status equ [10]
  37  0000              c equ [10].0
  38  0000              ac equ [10].1
  39  0000              z equ [10].2
  40  0000              ov equ [10].3
  41  0000              cz equ [10].6
  42  0000              sc equ [10].7
  43  0000              intc equ [17]
  44  0000              
  45  0000              extern ra:byte
  46  0000              extern rb:byte
  47  0000              extern rc:byte
  48  0000              extern rd:byte
  49  0000              extern re:byte
  50  0000              extern rf:byte
  51  0000              extern rg:byte
  52  0000              extern rh:byte
  53  0000              extern _Crom2Prom:near
  54  0000              extern _Crom2PromNext:near
  55  0000              
  56  0000              RAMBANK 0 @BITDATASEC, @BITDATASEC1
  57  0000              @HCCINIT	.section 'data'
  58  0000              @HCCINIT0	.section 'data'
  59  0000              @BITDATASEC	 .section 'data'
"File: irRemote.ASM  Assembler  Version HGASM0202      Page 2

  60  0000              @BITDATASEC1	 .section 'data'
  61  0000              
  62  0000              #pragma debug scope 1 1
  63  0000              	extern __DELAY3:near
  64  0000              	extern __DELAYX3:near
  65  0000              	extern __DELAYX6:near
  66  0000              	extern __DELAYY5:near
  67  0000              	extern __DELAYY3:near
  68  0000              	extern _builtin_holtek_delay_2:byte
  69  0000              ___stmc0 equ [47]
  70  0000              ___stmdh equ [50]
  71  0000              ___stmdl equ [49]
  72  0000              ___intc2 equ [19]
  73  0000              public _INT1_ISR
  74  0000              #pragma debug scope 2 1

  43  0000              #line 43 "d:\projects\bldc fan\remote fan final to production\global(longway)1\irRemote.c"
  43  0000              @INT1_ISR_code .section at 36 'code'
  43  0000              ifdef INTERRUPT_DELAY
  43  0000              	nop
  43  0000              endif
  43  0000  0080     E  	mov r1,a
  43  0001  070A        	mov a,status
  43  0002              ifndef INTERRUPT_DELAY
  43  0002  0080     E  	mov r2,a
  43  0003              endif
  43  0003  2800     R  	jmp _INT1_ISR
  43  0004              #pragma debug scope 1 1
  43  0004              @dummy36 endp
  43  0004              #pragma debug scope 3 1
  43  0000              _INT1_ISR .section 'code'
  43  0000              _INT1_ISR proc
  43  0000              ifdef INTERRUPT_DELAY
  43  0000              	mov r2,a
  43  0000              endif
  43  0000  0703        	mov a,mp
  43  0001  0080     E  	mov r3,a
  43  0002  0704        	mov a,sbp
  43  0003  0080     E  	mov r4,a
  44  0004              #line 44 "d:\projects\bldc fan\remote fan final to production\global(longway)1\irRemote.c"
  44  0004  35AF        	clr [47].3
  45  0005              #line 45 "d:\projects\bldc fan\remote fan final to production\global(longway)1\irRemote.c"
  45  0005  0732        	mov a,[50]
  45  0006  0080     R  	mov _timerCount[1],a
  46  0007              #line 46 "d:\projects\bldc fan\remote fan final to production\global(longway)1\irRemote.c"
  46  0007  0731        	mov a,[49]
  46  0008  0080     R  	mov _timerCount[0],a
  48  0009              #line 48 "d:\projects\bldc fan\remote fan final to production\global(longway)1\irRemote.c"
  48  0009  31AF        	set [47].3
  52  000A              #line 52 "d:\projects\bldc fan\remote fan final to production\global(longway)1\irRemote.c"
  52  000A  0700     R  	mov a,_irDataStage[0]
  52  000B  0A00        	sub a,0
  52  000C  3D0A        	sz z
  52  000D  2800     R  	jmp _L3
  52  000E  0A01        	sub a,(1)-(0)
  52  000F  3D0A        	sz z
  52  0010  2800     R  	jmp _L4
  52  0011              #line 52 "d:\projects\bldc fan\remote fan final to production\global(longway)1\irRemote.c"
  52  0011  0700     R  	mov a,_irDataStage[0]
  52  0012  0A02        	sub a,2
"File: irRemote.c    Assembler  Version HGASM0202      Page 3

  52  0013  390A        	snz z
  52  0014  2800     R  	jmp _L1
  52  0015  2800     R  	jmp _L10
  52  0016              _L3:
  62  0016              #line 62 "d:\projects\bldc fan\remote fan final to production\global(longway)1\irRemote.c"
  62  0016  0FCF        	mov a,207
  62  0017  0300     R  	add a,_timerCount[0]
  62  0018  0080     E  	mov rb,a
  62  0019  0FEE        	mov a,238
  62  001A  1300     R  	adc a,_timerCount[1]
  62  001B  0080     E  	mov rc,a
  62  001C  0F56        	mov a,86
  62  001D  0200     E  	sub a,rb
  62  001E  0F02        	mov a,2
  62  001F  1200     E  	sbc a,rc
  62  0020  380A        	snz c
  62  0021  2800     R  	jmp _L1
  64  0022              #line 64 "d:\projects\bldc fan\remote fan final to production\global(longway)1\irRemote.c"
  64  0022  0F01        	mov a,1
  64  0023  0080     R  	mov _irDataStage[0],a
  64  0024  2800     R  	jmp _L1
  64  0025              _L4:
  72  0025              #line 72 "d:\projects\bldc fan\remote fan final to production\global(longway)1\irRemote.c"
  72  0025  0FFD        	mov a,253
  72  0026  0300     R  	add a,_timerCount[0]
  72  0027  0080     E  	mov rb,a
  72  0028  0FF7        	mov a,247
  72  0029  1300     R  	adc a,_timerCount[1]
  72  002A  0080     E  	mov rc,a
  72  002B  0F12        	mov a,18
  72  002C  0200     E  	sub a,rb
  72  002D  0F05        	mov a,5
  72  002E  1200     E  	sbc a,rc
  72  002F  380A        	snz c
  72  0030  2800     R  	jmp _L7
  74  0031              #line 74 "d:\projects\bldc fan\remote fan final to production\global(longway)1\irRemote.c"
  74  0031  0F02        	mov a,2
  74  0032  0080     R  	mov _irDataStage[0],a
  75  0033              #line 75 "d:\projects\bldc fan\remote fan final to production\global(longway)1\irRemote.c"
  75  0033  1F00     R  	clr _irDataIndex[0]
  76  0034              #line 76 "d:\projects\bldc fan\remote fan final to production\global(longway)1\irRemote.c"
  76  0034  1F00     R  	clr _irIndex[0]
  77  0035              #line 77 "d:\projects\bldc fan\remote fan final to production\global(longway)1\irRemote.c"
  77  0035  1F00     R  	clr _irData[0]
  77  0036  1F00     R  	clr _irData[1]
  77  0037  1F00     R  	clr _irData[2]
  77  0038  1F00     R  	clr _irData[3]
  77  0039  2800     R  	jmp _L1
  77  003A              _L7:
  81  003A              #line 81 "d:\projects\bldc fan\remote fan final to production\global(longway)1\irRemote.c"
  81  003A  1F00     R  	clr _irDataStage[0]
  81  003B  2800     R  	jmp _L1
  81  003C              _L10:
  88  003C              #line 88 "d:\projects\bldc fan\remote fan final to production\global(longway)1\irRemote.c"
  88  003C  1400     R  	inca _irIndex[0]
  88  003D  0080     E  	mov ra,a
  88  003E  0700     E  	mov a,ra
  88  003F  0080     R  	mov _irIndex[0],a
  90  0040              #line 90 "d:\projects\bldc fan\remote fan final to production\global(longway)1\irRemote.c"
  90  0040  3C00     E  	sz ra.0
"File: irRemote.c    Assembler  Version HGASM0202      Page 4

  90  0041  2800     R  	jmp _L1
  94  0042              #line 94 "d:\projects\bldc fan\remote fan final to production\global(longway)1\irRemote.c"
  94  0042  0700     R  	mov a,_irDataIndex[0]
  94  0043  0080     E  	mov rb,a
  94  0044  1F00     E  	clr rc
  94  0045  1400     E  	inca rb
  94  0046  0080     E  	mov ra,a
  94  0047  0700     E  	mov a,ra
  94  0048  0080     R  	mov _irDataIndex[0],a
  94  0049  340A        	clr c
  94  004A  1A80     E  	rlc rb
  94  004B  1A80     E  	rlc rc
  94  004C  0F00     R  	mov a,low offset _tmArry
  94  004D  0300     E  	add a,rb
  94  004E  0083        	mov mp,a
  94  004F  0F00     R  	mov a,high offset _tmArry
  94  0050  1300     E  	adc a,rc
  94  0051  0084        	mov sbp,a
  94  0052  0700     R  	mov a,_timerCount[0]
  94  0053  0082        	mov ir,a
  94  0054  1483        	inc mp
  94  0055  0700     R  	mov a,_timerCount[1]
  94  0056  0082        	mov ir,a
  95  0057              #line 95 "d:\projects\bldc fan\remote fan final to production\global(longway)1\irRemote.c"
  95  0057  0F20        	mov a,32
  95  0058  0200     E  	sub a,ra
  95  0059  3C0A        	sz c
  95  005A  2800     R  	jmp _L1
  97  005B              #line 97 "d:\projects\bldc fan\remote fan final to production\global(longway)1\irRemote.c"
  97  005B  3000     R  	set _irDatavalid
  98  005C              #line 98 "d:\projects\bldc fan\remote fan final to production\global(longway)1\irRemote.c"
  98  005C  1F00     R  	clr _irDataStage[0]
  99  005D              #line 99 "d:\projects\bldc fan\remote fan final to production\global(longway)1\irRemote.c"
  99  005D  3493        	clr [19].1
 100  005E              #line 100 "d:\projects\bldc fan\remote fan final to production\global(longway)1\irRemote.c"
 100  005E  35AF        	clr [47].3
 100  005F              _L1:
 100  005F  0700     E  	mov a,r2
 100  0060  008A        	mov status,a
 100  0061  0700     E  	mov a,r3
 100  0062  0083        	mov mp,a
 100  0063  0700     E  	mov a,r4
 100  0064  0084        	mov sbp,a
 100  0065  0700     E  	mov a,r1
 100  0066  0004        	reti
 100  0067              _INT1_ISR endp
 100  0067              
 100  0067              #line 100 "d:\projects\bldc fan\remote fan final to production\global(longway)1\irRemote.c"
 100  0067              #pragma debug scope 1 1
 100  0067              public _getIrRemotedata
 100  0067              #pragma debug scope 4 1
 164  0067              #line 164 "d:\projects\bldc fan\remote fan final to production\global(longway)1\irRemote.c"
 164  0000              _getIrRemotedata .section 'code'
 164  0000              _getIrRemotedata proc
 164  0000              public _getIrRemotedata_2
 164  0000  0004[           local _getIrRemotedata_2 db 4 dup(?)	; 2,2
            00
            ]
 164  0004              #pragma debug pointer 42 14 4
 164  0004              #pragma debug pointer 42 14 4
"File: irRemote.c    Assembler  Version HGASM0202      Page 5

 164  0004              #pragma debug variable 42 4 _getIrRemotedata_2+0 "value"
 170  0004              #line 170 "d:\projects\bldc fan\remote fan final to production\global(longway)1\irRemote.c"
 170  0000  3800     R  	snz _irDatavalid
 170  0001  2800     R  	jmp _L17
 170  0002              #line 170 "d:\projects\bldc fan\remote fan final to production\global(longway)1\irRemote.c"
 170  0002  0F20        	mov a,32
 170  0003  0080     E  	mov rh,a
 170  0004  1F00     E  	clr ra
 170  0005  1F00     E  	clr rd
 170  0006  1F00     E  	clr re
 170  0007  1F00     E  	clr rf
 170  0008  1F00     E  	clr rg
 170  0009              _L16:
 175  0009              #line 175 "d:\projects\bldc fan\remote fan final to production\global(longway)1\irRemote.c"
 175  0009  0700     E  	mov a,rd
 175  000A  0380     E  	addm a,rd
 175  000B  0700     E  	mov a,re
 175  000C  1380     E  	adcm a,re
 175  000D  0700     E  	mov a,rf
 175  000E  1380     E  	adcm a,rf
 175  000F  0700     E  	mov a,rg
 175  0010  1380     E  	adcm a,rg
 177  0011              #line 177 "d:\projects\bldc fan\remote fan final to production\global(longway)1\irRemote.c"
 177  0011  0700     E  	mov a,ra
 177  0012  0080     E  	mov rb,a
 177  0013  1F00     E  	clr rc
 177  0014  340A        	clr c
 177  0015  1A80     E  	rlc rb
 177  0016  1A80     E  	rlc rc
 177  0017  0F00     R  	mov a,low offset _tmArry
 177  0018  0300     E  	add a,rb
 177  0019  0083        	mov mp,a
 177  001A  0F00     R  	mov a,high offset _tmArry
 177  001B  1300     E  	adc a,rc
 177  001C  0084        	mov sbp,a
 177  001D  2000     E  	call _Crom2Prom
 177  001E  0080     E  	mov rb,a
 177  001F  2000     E  	call _Crom2PromNext
 177  0020  0080     E  	mov rc,a
 177  0021  0F69        	mov a,105
 177  0022  0300     E  	add a,rb
 177  0023  0080     R  	mov _getIrRemotedata_2[2],a
 177  0024  0FFF        	mov a,255
 177  0025  1300     E  	adc a,rc
 177  0026  0080     R  	mov _getIrRemotedata_2[3],a
 177  0027  0FC6        	mov a,198
 177  0028  0200     R  	sub a,_getIrRemotedata_2[2]
 177  0029  0F00        	mov a,0
 177  002A  1200     R  	sbc a,_getIrRemotedata_2[3]
 177  002B  3C0A        	sz c
 177  002C  2800     R  	jmp _L13
 180  002D              #line 180 "d:\projects\bldc fan\remote fan final to production\global(longway)1\irRemote.c"
 180  002D  0F43        	mov a,67
 180  002E  0380     E  	addm a,rb
 180  002F  0FFD        	mov a,253
 180  0030  1380     E  	adcm a,rc
 180  0031  0F1E        	mov a,30
 180  0032  0200     E  	sub a,rb
 180  0033  0F03        	mov a,3
 180  0034  1200     E  	sbc a,rc
"File: irRemote.c    Assembler  Version HGASM0202      Page 6

 180  0035  380A        	snz c
 180  0036  2800     R  	jmp _L14
 182  0037              #line 182 "d:\projects\bldc fan\remote fan final to production\global(longway)1\irRemote.c"
 182  0037  0F00        	mov a,0
 182  0038  0580     E  	orm a,rg
 182  0039  0F00        	mov a,0
 182  003A  0580     E  	orm a,rf
 182  003B  0F00        	mov a,0
 182  003C  0580     E  	orm a,re
 182  003D  0F01        	mov a,1
 182  003E  0580     E  	orm a,rd
 182  003F  2800     R  	jmp _L13
 182  0040              _L14:
 185  0040              #line 185 "d:\projects\bldc fan\remote fan final to production\global(longway)1\irRemote.c"
 185  0040  1F00     R  	clr _irDataStage[0]
 186  0041              #line 186 "d:\projects\bldc fan\remote fan final to production\global(longway)1\irRemote.c"
 186  0041  3400     R  	clr _irDatavalid
 187  0042              #line 187 "d:\projects\bldc fan\remote fan final to production\global(longway)1\irRemote.c"
 187  0042  3093        	set [19].1
 187  0043  2800     R  	jmp _L17
 187  0044              _L13:
 173  0044              #line 173 "d:\projects\bldc fan\remote fan final to production\global(longway)1\irRemote.c"
 173  0044  1480     E  	inc ra
 173  0045  1780     E  	sdz rh
 173  0046  2800     R  	jmp _L16
 192  0047              #line 192 "d:\projects\bldc fan\remote fan final to production\global(longway)1\irRemote.c"
 192  0047  3400     R  	clr _irDatavalid
 193  0048              #line 193 "d:\projects\bldc fan\remote fan final to production\global(longway)1\irRemote.c"
 193  0048  0700     R  	mov a,_getIrRemotedata_2[0]
 193  0049  0083        	mov mp,a
 193  004A  0700     R  	mov a,_getIrRemotedata_2[1]
 193  004B  0084        	mov sbp,a
 193  004C  0700     E  	mov a,rd
 193  004D  0082        	mov ir,a
 193  004E  1483        	inc mp
 193  004F  0700     E  	mov a,re
 193  0050  0082        	mov ir,a
 193  0051  1483        	inc mp
 193  0052  0700     E  	mov a,rf
 193  0053  0082        	mov ir,a
 193  0054  1483        	inc mp
 193  0055  0700     E  	mov a,rg
 193  0056  0082        	mov ir,a
 194  0057              #line 194 "d:\projects\bldc fan\remote fan final to production\global(longway)1\irRemote.c"
 194  0057  3093        	set [19].1
 196  0058              #line 196 "d:\projects\bldc fan\remote fan final to production\global(longway)1\irRemote.c"
 196  0058  0F01        	mov a,1
 196  0059  0080     E  	mov ra,a
 196  005A  2800     R  	jmp _L12
 196  005B              _L17:
 200  005B              #line 200 "d:\projects\bldc fan\remote fan final to production\global(longway)1\irRemote.c"
 200  005B  1F00     E  	clr ra
 200  005C              _L12:
 205  005C              #line 205 "d:\projects\bldc fan\remote fan final to production\global(longway)1\irRemote.c"
 205  005C  0700     E  	mov a,ra
 205  005D  0003        	ret
 205  005E              _getIrRemotedata endp
 205  005E              #line 205 "d:\projects\bldc fan\remote fan final to production\global(longway)1\irRemote.c"
 205  005E              #pragma debug scope 1 1
 205  005E              ___pa equ [20]
"File: irRemote.c    Assembler  Version HGASM0202      Page 7

 205  005E              public _irKeyProcess
 205  005E              #pragma debug scope 5 1
 209  005E              #line 209 "d:\projects\bldc fan\remote fan final to production\global(longway)1\irRemote.c"
 209  0000              _irKeyProcess .section 'code'
 209  0000              _irKeyProcess proc
 209  0000              public _irKeyProcess_2
 209  0000  0004[           local _irKeyProcess_2 db 4 dup(?)	; 4,0
            00
            ]
 209  0004              #pragma debug variable 14 5 _irKeyProcess_2+0 "key"
 210  0004              #line 210 "d:\projects\bldc fan\remote fan final to production\global(longway)1\irRemote.c"
 210  0000  0700     R  	mov a,_irKeyProcess_2[0]
 210  0001  0080     E  	mov _keyPressIndiVal[0],a
 210  0002  0700     R  	mov a,_irKeyProcess_2[1]
 210  0003  0080     E  	mov _keyPressIndiVal[1],a
 210  0004  0700     R  	mov a,_irKeyProcess_2[2]
 210  0005  0080     E  	mov _keyPressIndiVal[2],a
 210  0006  0700     R  	mov a,_irKeyProcess_2[3]
 210  0007  0080     E  	mov _keyPressIndiVal[3],a
 250  0008              #line 250 "d:\projects\bldc fan\remote fan final to production\global(longway)1\irRemote.c"
 250  0008  0700     R  	mov a,_irKeyProcess_2[0]
 250  0009  0AE5        	sub a,229
 250  000A  0700     R  	mov a,_irKeyProcess_2[1]
 250  000B  081A        	sbc a,26
 250  000C  0700     R  	mov a,_irKeyProcess_2[2]
 250  000D  080A        	sbc a,10
 250  000E  0700     R  	mov a,_irKeyProcess_2[3]
 250  000F  0800        	sbc a,0
 250  0010  3F0A        	sz cz
 250  0011  2800     R  	jmp _L20
 250  0012              #line 250 "d:\projects\bldc fan\remote fan final to production\global(longway)1\irRemote.c"
 250  0012  0700     R  	mov a,_irKeyProcess_2[0]
 250  0013  0A95        	sub a,149
 250  0014  0700     R  	mov a,_irKeyProcess_2[1]
 250  0015  086A        	sbc a,106
 250  0016  0700     R  	mov a,_irKeyProcess_2[2]
 250  0017  080A        	sbc a,10
 250  0018  0700     R  	mov a,_irKeyProcess_2[3]
 250  0019  0800        	sbc a,0
 250  001A  3F0A        	sz cz
 250  001B  2800     R  	jmp _L21
 250  001C  0700     R  	mov a,_irKeyProcess_2[0]
 250  001D  0A55        	sub a,85
 250  001E  0700     R  	mov a,_irKeyProcess_2[1]
 250  001F  08AA        	sbc a,170
 250  0020  0700     R  	mov a,_irKeyProcess_2[2]
 250  0021  080A        	sbc a,10
 250  0022  0700     R  	mov a,_irKeyProcess_2[3]
 250  0023  0800        	sbc a,0
 250  0024  3F0A        	sz cz
 250  0025  2800     R  	jmp _L22
 250  0026  0700     R  	mov a,_irKeyProcess_2[0]
 250  0027  0A25        	sub a,37
 250  0028  0700     R  	mov a,_irKeyProcess_2[1]
 250  0029  08DA        	sbc a,218
 250  002A  0700     R  	mov a,_irKeyProcess_2[2]
 250  002B  080A        	sbc a,10
 250  002C  0700     R  	mov a,_irKeyProcess_2[3]
 250  002D  0800        	sbc a,0
 250  002E  3F0A        	sz cz
"File: irRemote.c    Assembler  Version HGASM0202      Page 8

 250  002F  2800     R  	jmp _L33
 250  0030  0700     R  	mov a,_irKeyProcess_2[0]
 250  0031  0A15        	sub a,21
 250  0032  0700     R  	mov a,_irKeyProcess_2[1]
 250  0033  08EA        	sbc a,234
 250  0034  0700     R  	mov a,_irKeyProcess_2[2]
 250  0035  080A        	sbc a,10
 250  0036  0700     R  	mov a,_irKeyProcess_2[3]
 250  0037  0800        	sbc a,0
 250  0038  3F0A        	sz cz
 250  0039  2800     R  	jmp _L24
 250  003A  0700     R  	mov a,_irKeyProcess_2[0]
 250  003B  0ADE        	sub a,222
 250  003C  0700     R  	mov a,_irKeyProcess_2[1]
 250  003D  0821        	sbc a,33
 250  003E  0700     R  	mov a,_irKeyProcess_2[2]
 250  003F  08FD        	sbc a,253
 250  0040  0700     R  	mov a,_irKeyProcess_2[3]
 250  0041  0802        	sbc a,2
 250  0042  3F0A        	sz cz
 250  0043  2800     R  	jmp _L25
 250  0044  0700     R  	mov a,_irKeyProcess_2[0]
 250  0045  0ACE        	sub a,206
 250  0046  0700     R  	mov a,_irKeyProcess_2[1]
 250  0047  0831        	sbc a,49
 250  0048  0700     R  	mov a,_irKeyProcess_2[2]
 250  0049  08FD        	sbc a,253
 250  004A  0700     R  	mov a,_irKeyProcess_2[3]
 250  004B  0802        	sbc a,2
 250  004C  3F0A        	sz cz
 250  004D  2800     R  	jmp _L22
 250  004E  0700     R  	mov a,_irKeyProcess_2[0]
 250  004F  0AC6        	sub a,198
 250  0050  0700     R  	mov a,_irKeyProcess_2[1]
 250  0051  0839        	sbc a,57
 250  0052  0700     R  	mov a,_irKeyProcess_2[2]
 250  0053  08FD        	sbc a,253
 250  0054  0700     R  	mov a,_irKeyProcess_2[3]
 250  0055  0802        	sbc a,2
 250  0056  3F0A        	sz cz
 250  0057  2800     R  	jmp _L26
 250  0058  0700     R  	mov a,_irKeyProcess_2[0]
 250  0059  0ABE        	sub a,190
 250  005A  0700     R  	mov a,_irKeyProcess_2[1]
 250  005B  0841        	sbc a,65
 250  005C  0700     R  	mov a,_irKeyProcess_2[2]
 250  005D  08FD        	sbc a,253
 250  005E  0700     R  	mov a,_irKeyProcess_2[3]
 250  005F  0802        	sbc a,2
 250  0060  3F0A        	sz cz
 250  0061  2800     R  	jmp _L27
 250  0062  0700     R  	mov a,_irKeyProcess_2[0]
 250  0063  0A9E        	sub a,158
 250  0064  0700     R  	mov a,_irKeyProcess_2[1]
 250  0065  0861        	sbc a,97
 250  0066  0700     R  	mov a,_irKeyProcess_2[2]
 250  0067  08FD        	sbc a,253
 250  0068  0700     R  	mov a,_irKeyProcess_2[3]
 250  0069  0802        	sbc a,2
 250  006A  3F0A        	sz cz
"File: irRemote.c    Assembler  Version HGASM0202      Page 9

 250  006B  2800     R  	jmp _L33
 250  006C  0700     R  	mov a,_irKeyProcess_2[0]
 250  006D  0A66        	sub a,102
 250  006E  0700     R  	mov a,_irKeyProcess_2[1]
 250  006F  0899        	sbc a,153
 250  0070  0700     R  	mov a,_irKeyProcess_2[2]
 250  0071  08FD        	sbc a,253
 250  0072  0700     R  	mov a,_irKeyProcess_2[3]
 250  0073  0802        	sbc a,2
 250  0074  3F0A        	sz cz
 250  0075  2800     R  	jmp _L28
 250  0076  0700     R  	mov a,_irKeyProcess_2[0]
 250  0077  0A5E        	sub a,94
 250  0078  0700     R  	mov a,_irKeyProcess_2[1]
 250  0079  08A1        	sbc a,161
 250  007A  0700     R  	mov a,_irKeyProcess_2[2]
 250  007B  08FD        	sbc a,253
 250  007C  0700     R  	mov a,_irKeyProcess_2[3]
 250  007D  0802        	sbc a,2
 250  007E  3F0A        	sz cz
 250  007F  2800     R  	jmp _L24
 250  0080  0700     R  	mov a,_irKeyProcess_2[0]
 250  0081  0A3E        	sub a,62
 250  0082  0700     R  	mov a,_irKeyProcess_2[1]
 250  0083  08C1        	sbc a,193
 250  0084  0700     R  	mov a,_irKeyProcess_2[2]
 250  0085  08FD        	sbc a,253
 250  0086  0700     R  	mov a,_irKeyProcess_2[3]
 250  0087  0802        	sbc a,2
 250  0088  3F0A        	sz cz
 250  0089  2800     R  	jmp _L20
 250  008A  0700     R  	mov a,_irKeyProcess_2[0]
 250  008B  0A2E        	sub a,46
 250  008C  0700     R  	mov a,_irKeyProcess_2[1]
 250  008D  08D1        	sbc a,209
 250  008E  0700     R  	mov a,_irKeyProcess_2[2]
 250  008F  08FD        	sbc a,253
 250  0090  0700     R  	mov a,_irKeyProcess_2[3]
 250  0091  0802        	sbc a,2
 250  0092  3F0A        	sz cz
 250  0093  2800     R  	jmp _L21
 250  0094  0700     R  	mov a,_irKeyProcess_2[0]
 250  0095  0ADF        	sub a,223
 250  0096  0700     R  	mov a,_irKeyProcess_2[1]
 250  0097  0820        	sbc a,32
 250  0098  0700     R  	mov a,_irKeyProcess_2[2]
 250  0099  087E        	sbc a,126
 250  009A  0700     R  	mov a,_irKeyProcess_2[3]
 250  009B  081B        	sbc a,27
 250  009C  3F0A        	sz cz
 250  009D  2800     R  	jmp _L27
 250  009E  0700     R  	mov a,_irKeyProcess_2[0]
 250  009F  0ABF        	sub a,191
 250  00A0  0700     R  	mov a,_irKeyProcess_2[1]
 250  00A1  0840        	sbc a,64
 250  00A2  0700     R  	mov a,_irKeyProcess_2[2]
 250  00A3  087E        	sbc a,126
 250  00A4  0700     R  	mov a,_irKeyProcess_2[3]
 250  00A5  081B        	sbc a,27
 250  00A6  3F0A        	sz cz
"File: irRemote.c    Assembler  Version HGASM0202      Page 10

 250  00A7  2800     R  	jmp _L29
 250  00A8  0700     R  	mov a,_irKeyProcess_2[0]
 250  00A9  0A7F        	sub a,127
 250  00AA  0700     R  	mov a,_irKeyProcess_2[1]
 250  00AB  0880        	sbc a,128
 250  00AC  0700     R  	mov a,_irKeyProcess_2[2]
 250  00AD  087E        	sbc a,126
 250  00AE  0700     R  	mov a,_irKeyProcess_2[3]
 250  00AF  081B        	sbc a,27
 250  00B0  3F0A        	sz cz
 250  00B1  2800     R  	jmp _L30
 250  00B2  0700     R  	mov a,_irKeyProcess_2[0]
 250  00B3  0A57        	sub a,87
 250  00B4  0700     R  	mov a,_irKeyProcess_2[1]
 250  00B5  08A8        	sbc a,168
 250  00B6  0700     R  	mov a,_irKeyProcess_2[2]
 250  00B7  087E        	sbc a,126
 250  00B8  0700     R  	mov a,_irKeyProcess_2[3]
 250  00B9  081B        	sbc a,27
 250  00BA  3B0A        	snz cz
 250  00BB  2800     R  	jmp _L18
 250  00BC  2800     R  	jmp _L25
 250  00BD              _L30:
 266  00BD              #line 266 "d:\projects\bldc fan\remote fan final to production\global(longway)1\irRemote.c"
 266  00BD  0700     E  	mov a,_FanSpeedValue[0]
 266  00BE  0E0F        	and a,15
 266  00BF  0080     E  	mov ra,a
 266  00C0  3000     E  	set ra.4
 266  00C1  2800     R  	jmp _L39
 266  00C2              _L29:
 284  00C2              #line 284 "d:\projects\bldc fan\remote fan final to production\global(longway)1\irRemote.c"
 284  00C2  0700     E  	mov a,_FanSpeedValue[0]
 284  00C3  0E0F        	and a,15
 284  00C4  0080     E  	mov ra,a
 284  00C5  3000     E  	set ra.5
 284  00C6              _L39:
 284  00C6  0700     E  	mov a,ra
 284  00C7  0080     E  	mov _FanSpeedValue[0],a
 301  00C8              #line 301 "d:\projects\bldc fan\remote fan final to production\global(longway)1\irRemote.c"
 301  00C8  2800     R  	jmp _L18
 301  00C9              _L27:
 308  00C9              #line 308 "d:\projects\bldc fan\remote fan final to production\global(longway)1\irRemote.c"
 308  00C9  0700     E  	mov a,_FanSpeedValue[0]
 308  00CA  0E0F        	and a,15
 308  00CB  0080     E  	mov ra,a
 308  00CC  0700     E  	mov a,ra
 308  00CD  0D30        	or a,48
 308  00CE  0080     E  	mov _FanSpeedValue[0],a
 325  00CF              #line 325 "d:\projects\bldc fan\remote fan final to production\global(longway)1\irRemote.c"
 325  00CF  2800     R  	jmp _L18
 325  00D0              _L20:
 332  00D0              #line 332 "d:\projects\bldc fan\remote fan final to production\global(longway)1\irRemote.c"
 332  00D0  0700     E  	mov a,_FanSpeedValue[0]
 332  00D1  0E0F        	and a,15
 332  00D2  0080     E  	mov ra,a
 332  00D3  3000     E  	set ra.6
 332  00D4  2800     R  	jmp _L39
 332  00D5              _L25:
 356  00D5              #line 356 "d:\projects\bldc fan\remote fan final to production\global(longway)1\irRemote.c"
 356  00D5  0700     E  	mov a,_FanSpeedValue[0]
"File: irRemote.c    Assembler  Version HGASM0202      Page 11

 356  00D6  0E0F        	and a,15
 356  00D7  0080     E  	mov ra,a
 356  00D8  0700     E  	mov a,ra
 356  00D9  0D50        	or a,80
 356  00DA  0080     E  	mov _FanSpeedValue[0],a
 373  00DB              #line 373 "d:\projects\bldc fan\remote fan final to production\global(longway)1\irRemote.c"
 373  00DB  2800     R  	jmp _L18
 373  00DC              _L24:
 380  00DC              #line 380 "d:\projects\bldc fan\remote fan final to production\global(longway)1\irRemote.c"
 380  00DC  0700     E  	mov a,_FanSpeedValue[0]
 380  00DD  0E0F        	and a,15
 380  00DE  0080     E  	mov ra,a
 380  00DF  0700     E  	mov a,ra
 380  00E0  0D60        	or a,96
 380  00E1  0080     E  	mov _FanSpeedValue[0],a
 397  00E2              #line 397 "d:\projects\bldc fan\remote fan final to production\global(longway)1\irRemote.c"
 397  00E2  2800     R  	jmp _L18
 397  00E3              _L21:
 467  00E3              #line 467 "d:\projects\bldc fan\remote fan final to production\global(longway)1\irRemote.c"
 467  00E3  0700     E  	mov a,_FanSpeedValue[0]
 467  00E4  0EF0        	and a,240
 467  00E5  0080     E  	mov ra,a
 467  00E6  1E00     E  	snz ra
 467  00E7  2800     R  	jmp _L18
 469  00E8              #line 469 "d:\projects\bldc fan\remote fan final to production\global(longway)1\irRemote.c"
 469  00E8  3000     E  	set _powerBtn
 472  00E9              #line 472 "d:\projects\bldc fan\remote fan final to production\global(longway)1\irRemote.c"
 472  00E9  1100     E  	swapa _FanSpeedValue[0]
 472  00EA  0E0F        	and a,0fh
 472  00EB  0080     E  	mov _EEWriteChar_2[0],a
 472  00EC  0F00        	mov a,0
 472  00ED  2000     E  	call _EEWriteChar
 473  00EE              #line 473 "d:\projects\bldc fan\remote fan final to production\global(longway)1\irRemote.c"
 473  00EE  0F0F        	mov a,15
 473  00EF  0680     E  	andm a,_FanSpeedValue[0]
 474  00F0              #line 474 "d:\projects\bldc fan\remote fan final to production\global(longway)1\irRemote.c"
 474  00F0  3014        	set [20].0
 474  00F1  2800     R  	jmp _L18
 474  00F2              _L22:
 501  00F2              #line 501 "d:\projects\bldc fan\remote fan final to production\global(longway)1\irRemote.c"
 501  00F2  3400     E  	clr _powerBtn
 503  00F3              #line 503 "d:\projects\bldc fan\remote fan final to production\global(longway)1\irRemote.c"
 503  00F3  0700     E  	mov a,_FanSpeedValue[0]
 503  00F4  0EF0        	and a,240
 503  00F5  0080     E  	mov ra,a
 503  00F6  1080     E  	sz ra
 503  00F7  2800     R  	jmp _L18
 506  00F8              #line 506 "d:\projects\bldc fan\remote fan final to production\global(longway)1\irRemote.c"
 506  00F8  0F00        	mov a,0
 506  00F9  2000     E  	call _EEReadChar
 506  00FA  0080     E  	mov rb,a
 506  00FB  0F0F        	mov a,15
 506  00FC  0680     E  	andm a,rb
 506  00FD  0700     E  	mov a,rb
 506  00FE  0080     E  	mov ra,a
 506  00FF  1100     E  	swapa ra
 506  0100  0EF0        	and a,0f0h 
 506  0101  0080     E  	mov ra,a
 506  0102  0700     E  	mov a,_FanSpeedValue[0]
 506  0103  0E0F        	and a,15
"File: irRemote.c    Assembler  Version HGASM0202      Page 12

 506  0104  0080     E  	mov rc,a
 506  0105  0700     E  	mov a,rc
 506  0106  0500     E  	or a,ra
 506  0107  0080     E  	mov _FanSpeedValue[0],a
 507  0108              #line 507 "d:\projects\bldc fan\remote fan final to production\global(longway)1\irRemote.c"
 507  0108  1F00     E  	clr rc
 507  0109  0F07        	mov a,7
 507  010A  0200     E  	sub a,rb
 507  010B  0F00        	mov a,0
 507  010C  1200     E  	sbc a,rc
 507  010D  3F8A        	sz sc
 507  010E  2800     R  	jmp _L33
 507  010F  0700     E  	mov a,_FanSpeedValue[0]
 507  0110  0EF0        	and a,240
 507  0111  0080     E  	mov ra,a
 507  0112  1080     E  	sz ra
 507  0113  2800     R  	jmp _L18
 507  0114              _L33:
 508  0114              #line 508 "d:\projects\bldc fan\remote fan final to production\global(longway)1\irRemote.c"
 508  0114  0700     E  	mov a,_FanSpeedValue[0]
 508  0115  0E0F        	and a,15
 508  0116  0080     E  	mov ra,a
 508  0117  0700     E  	mov a,ra
 508  0118  0D70        	or a,112
 508  0119  0080     E  	mov _FanSpeedValue[0],a
 508  011A  2800     R  	jmp _L18
 508  011B              _L28:
 528  011B              #line 528 "d:\projects\bldc fan\remote fan final to production\global(longway)1\irRemote.c"
 528  011B  1100     E  	swapa _FanSpeedValue[0]
 528  011C  0E0F        	and a,0fh
 528  011D  0080     E  	mov rb,a
 528  011E  1F00     E  	clr rc
 529  011F              #line 529 "d:\projects\bldc fan\remote fan final to production\global(longway)1\irRemote.c"
 529  011F  1480     E  	inc rb
 529  0120  3D0A        	sz z
 529  0121  1480     E  	inc rc
 530  0122              #line 530 "d:\projects\bldc fan\remote fan final to production\global(longway)1\irRemote.c"
 530  0122  0F06        	mov a,6
 530  0123  0200     E  	sub a,rb
 530  0124  0F00        	mov a,0
 530  0125  1200     E  	sbc a,rc
 530  0126  380A        	snz c
 530  0127  2800     R  	jmp _L34
 529  0128              #line 529 "d:\projects\bldc fan\remote fan final to production\global(longway)1\irRemote.c"
 529  0128  0700     E  	mov a,rb
 529  0129  0080     R  	mov _speed_temp[0],a
 529  012A  0700     E  	mov a,rc
 529  012B  0080     R  	mov _speed_temp[1],a
 529  012C  2800     R  	jmp _L38
 529  012D              _L34:
 531  012D              #line 531 "d:\projects\bldc fan\remote fan final to production\global(longway)1\irRemote.c"
 531  012D  0F07        	mov a,7
 531  012E  0080     R  	mov _speed_temp[0],a
 531  012F  1F00     R  	clr _speed_temp[1]
 531  0130  2800     R  	jmp _L38
 531  0131              _L26:
 549  0131              #line 549 "d:\projects\bldc fan\remote fan final to production\global(longway)1\irRemote.c"
 549  0131  1100     E  	swapa _FanSpeedValue[0]
 549  0132  0E0F        	and a,0fh
 549  0133  0080     E  	mov rb,a
"File: irRemote.c    Assembler  Version HGASM0202      Page 13

 549  0134  1F00     E  	clr rc
 550  0135              #line 550 "d:\projects\bldc fan\remote fan final to production\global(longway)1\irRemote.c"
 550  0135  0700     E  	mov a,rb
 550  0136  0500     E  	or a,rc
 550  0137  390A        	snz z
 550  0138  2800     R  	jmp _L36
 549  0139              #line 549 "d:\projects\bldc fan\remote fan final to production\global(longway)1\irRemote.c"
 549  0139  1F00     R  	clr _speed_temp[0]
 549  013A  1F00     R  	clr _speed_temp[1]
 549  013B  2800     R  	jmp _L37
 549  013C              _L36:
 551  013C              #line 551 "d:\projects\bldc fan\remote fan final to production\global(longway)1\irRemote.c"
 551  013C  0FFF        	mov a,255
 551  013D  0300     E  	add a,rb
 551  013E  0080     R  	mov _speed_temp[0],a
 551  013F  0FFF        	mov a,255
 551  0140  1300     E  	adc a,rc
 551  0141  0080     R  	mov _speed_temp[1],a
 551  0142              _L37:
 552  0142              #line 552 "d:\projects\bldc fan\remote fan final to production\global(longway)1\irRemote.c"
 552  0142  0F03        	mov a,3
 552  0143  0200     R  	sub a,_speed_temp[0]
 552  0144  0F00        	mov a,0
 552  0145  1200     R  	sbc a,_speed_temp[1]
 552  0146  380A        	snz c
 552  0147  2800     R  	jmp _L38
 553  0148              #line 553 "d:\projects\bldc fan\remote fan final to production\global(longway)1\irRemote.c"
 553  0148  0F03        	mov a,3
 553  0149  0080     R  	mov _speed_temp[0],a
 553  014A  1F00     R  	clr _speed_temp[1]
 553  014B              _L38:
 554  014B              #line 554 "d:\projects\bldc fan\remote fan final to production\global(longway)1\irRemote.c"
 554  014B  0700     R  	mov a,_speed_temp[0]
 554  014C  0080     E  	mov ra,a
 554  014D  1100     E  	swapa ra
 554  014E  0EF0        	and a,0f0h 
 554  014F  0080     E  	mov ra,a
 554  0150  0700     E  	mov a,_FanSpeedValue[0]
 554  0151  0E0F        	and a,15
 554  0152  0080     E  	mov rb,a
 554  0153  0700     E  	mov a,rb
 554  0154  0500     E  	or a,ra
 554  0155  0080     E  	mov _FanSpeedValue[0],a
 554  0156              _L18:
 554  0156  0003        	ret
 554  0157              _irKeyProcess endp
 554  0157              #line 554 "d:\projects\bldc fan\remote fan final to production\global(longway)1\irRemote.c"
 554  0157              #pragma debug scope 1 1
 554  0157              public _toggle
 554  0000              @HCCINIT	.section 'data'
  26  0000              #line 26 "d:\projects\bldc fan\remote fan final to production\global(longway)1\irRemote.c"
  26  0000              @HCCINIT_toggle .section 'data'
  26  0000              _toggle label byte
  26  0000              #pragma debug variable 8 1 _toggle "toggle"
  26  0000              	db 0
  26  0000              @ROMDATA_BASE .section inpage 'code'
  26  0000              	db 0
  26  0001              @HCCINIT_toggle .section 'data'
  26  0001              public _irDatavalid
  19  0001              #line 19 "d:\projects\bldc fan\remote fan final to production\global(longway)1\irRemote.c"
"File: irRemote.c    Assembler  Version HGASM0202      Page 14

  19  0000              @BITDATASEC .section 'data'
  19  0000  00          _irDatavalid	dbit 0
  19  0001              #pragma debug variable 2 1 _irDatavalid "irDatavalid"
  19  0001              public _irData
  18  0001              #line 18 "d:\projects\bldc fan\remote fan final to production\global(longway)1\irRemote.c"
  18  0000              @HCCINIT_irData .section 'data'
  18  0000              _irData label byte
  18  0000              #pragma debug variable 14 1 _irData "irData"
  18  0000              	db 0
  18  0001              @ROMDATA_BASE .section inpage 'code'
  18  0001              	db 0
  18  0001              @HCCINIT_irData .section 'data'
  18  0001              	db 0
  18  0001              @ROMDATA_BASE .section inpage 'code'
  18  0001              	db 0
  18  0002              @HCCINIT_irData .section 'data'
  18  0002              	db 0
  18  0002              @ROMDATA_BASE .section inpage 'code'
  18  0002              	db 0
  18  0003              @HCCINIT_irData .section 'data'
  18  0003              	db 0
  18  0002              @ROMDATA_BASE .section inpage 'code'
  18  0002              	db 0
  18  0004              @HCCINIT_irData .section 'data'
  18  0004              public _irIndex
  17  0004              #line 17 "d:\projects\bldc fan\remote fan final to production\global(longway)1\irRemote.c"
  17  0000              @HCCINIT_irIndex .section 'data'
  17  0000              _irIndex label byte
  17  0000              #pragma debug variable 8 1 _irIndex "irIndex"
  17  0000              	db 0
  17  0003              @ROMDATA_BASE .section inpage 'code'
  17  0003              	db 0
  17  0001              @HCCINIT_irIndex .section 'data'
  17  0001              public _irDataIndex
  17  0001              #line 17 "d:\projects\bldc fan\remote fan final to production\global(longway)1\irRemote.c"
  17  0000              @HCCINIT_irDataIndex .section 'data'
  17  0000              _irDataIndex label byte
  17  0000              #pragma debug variable 8 1 _irDataIndex "irDataIndex"
  17  0000              	db 0
  17  0003              @ROMDATA_BASE .section inpage 'code'
  17  0003              	db 0
  17  0001              @HCCINIT_irDataIndex .section 'data'
  17  0001              public _irDataStage
  17  0001              #line 17 "d:\projects\bldc fan\remote fan final to production\global(longway)1\irRemote.c"
  17  0000              @HCCINIT_irDataStage .section 'data'
  17  0000              _irDataStage label byte
  17  0000              #pragma debug variable 8 1 _irDataStage "irDataStage"
  17  0000              	db 0
  17  0004              @ROMDATA_BASE .section inpage 'code'
  17  0004              	db 0
  17  0001              @HCCINIT_irDataStage .section 'data'
  16  0001              #line 16 "d:\projects\bldc fan\remote fan final to production\global(longway)1\irRemote.c"
  16  0001              public _timerCount
  16  0000              @HCCINIT0_timerCount .section 'data'
  16  0000  0002[       _timerCount	db 2 dup(0)
            00
            ]
  16  0002              #pragma debug union_end
  16  0002              #pragma debug union_end
  16  0002              #pragma debug variable 43 1 _timerCount "timerCount"
"File: irRemote.c    Assembler  Version HGASM0202      Page 15

  16  0002              
  16  0000              @HCCINIT .section 'data'
  16  0000              public _tmindex
  15  0000              #line 15 "d:\projects\bldc fan\remote fan final to production\global(longway)1\irRemote.c"
  15  0000              @HCCINIT_tmindex .section 'data'
  15  0000              _tmindex label byte
  15  0000              #pragma debug variable 8 1 _tmindex "tmindex"
  15  0000              	db 0
  15  0004              @ROMDATA_BASE .section inpage 'code'
  15  0004              	db 0
  15  0001              @HCCINIT_tmindex .section 'data'
  14  0001              #line 14 "d:\projects\bldc fan\remote fan final to production\global(longway)1\irRemote.c"
  14  0001              public _speed_temp
  14  0000              @HCCINIT0_speed_temp .section 'data'
  14  0000  0002[       _speed_temp	db 2 dup(0)
            00
            ]
  14  0002              #pragma debug variable 12 1 _speed_temp "speed_temp"
  14  0002              
  14  0000              @HCCINIT .section 'data'
  14  0000              #line 14 "d:\projects\bldc fan\remote fan final to production\global(longway)1\irRemote.c"
  14  0000              public _tmArry
  14  0000              @HCCINIT0_tmArry .section 'data'
  14  0000  0080[       _tmArry	db 128 dup(0)
            00
            ]
  14  0080              #pragma debug array 44 12 64 1
  14  0080              #pragma debug array 44 12 64 1
  14  0080              #pragma debug variable 44 1 _tmArry "tmArry"
  14  0080              
  14  0000              @HCCINIT .section 'data'
  14  0000              #pragma debug struct_end
  14  0000              #pragma debug struct_end
  14  0000              #pragma debug union_end
  14  0000              #pragma debug union_end
  14  0000              #pragma debug variable 46 1 ___intc2 "__intc2" 1
  14  0000              #pragma debug struct_end
  14  0000              #pragma debug struct_end
  14  0000              #pragma debug union_end
  14  0000              #pragma debug union_end
  14  0000              #pragma debug variable 48 1 ___pa "__pa" 1
  14  0000              #pragma debug struct_end
  14  0000              #pragma debug struct_end
  14  0000              #pragma debug union_end
  14  0000              #pragma debug union_end
  14  0000              #pragma debug variable 50 1 ___stmc0 "__stmc0" 1
  14  0000              #pragma debug variable 8 1 ___stmdl "__stmdl" 1
  14  0000              #pragma debug variable 8 1 ___stmdh "__stmdh" 1
  14  0000              
  14  0000              ; output external variables
  14  0000              extern _powerBtn:bit
  14  0000              extern _FanSpeedValue:byte
  14  0000              extern _keyPressIndiVal:byte
  14  0000              extern r1:byte
  14  0000              extern r2:byte
  14  0000              extern r3:byte
  14  0000              extern r4:byte
  14  0000              extern _EEWriteChar_2:byte
  14  0000              extern _EEWriteChar:near
  14  0000              extern _EEReadChar:near
"File: irRemote.c    Assembler  Version HGASM0202      Page 16

  14  0000              
  14  0000              ; 
  14  0000              ; Generated by holtek-gcc v3.19, Tue Apr 05 13:18:21 2022
  14  0000              ; Rebuild 718
  14  0000              ; end of file


        0 Errors, 0