"File: irRemote.c    Assembler  Version HGASM0202      Page 1


   1  0000              ; Generated by holtek-gcc v3.19, Thu Dec 16 15:19:27 2021
   2  0000              ; 
   3  0000              ; Configuration:
   4  0000              ;       with long instruction
   5  0000              ;       Single ROM, Multi-RAM
   6  0000              ;       bits_per_rom_unit:16
   7  0000              ;       with mp1
   8  0000              ;       with tbhp, address(0x9)
   9  0000              ;          Use tabrd-const
  10  0000              ;       
  11  0000              ; SFR address of long-instruction arch:
  12  0000              ;    mp0 = -1,1,0
  13  0000              ;    mp1 = 4,3,2
  14  0000              ;    mp2 = 14,13,12
  15  0000              ;    tbp = 9,7,8
  16  0000              ;    acc = 5
  17  0000              ;    pcl = 6
  18  0000              ;    status = 10
  19  0000              ;    bp = 11
  20  0000              ;    intc = 17
  21  0000              ;       
  22  0000              ;       
  23  0000              ; use 'tabrdc' instead of 'tabrd'
  24  0000              ;       
  25  0000              
  26  0000              #pragma translator "holtek-gcc 4.6.4" "3.19" "build 20130711"
  27  0000              ; Rebuild 718
  28  0000              
  29  0000              ir equ [2]
  30  0000              mp equ [3]
  31  0000              sbp equ [4]
  32  0000              acc equ [5]
  33  0000              bp equ [11]
  34  0000              tblp equ [7]
  35  0000              tbhp equ [9]
  36  0000              status equ [10]
  37  0000              c equ [10].0
  38  0000              ac equ [10].1
  39  0000              z equ [10].2
  40  0000              ov equ [10].3
  41  0000              cz equ [10].6
  42  0000              sc equ [10].7
  43  0000              intc equ [17]
  44  0000              
  45  0000              extern ra:byte
  46  0000              extern rb:byte
  47  0000              extern rc:byte
  48  0000              extern rd:byte
  49  0000              extern re:byte
  50  0000              extern rf:byte
  51  0000              extern rg:byte
  52  0000              extern rh:byte
  53  0000              extern _Crom2Prom:near
  54  0000              extern _Crom2PromNext:near
  55  0000              
  56  0000              RAMBANK 0 @BITDATASEC, @BITDATASEC1
  57  0000              @HCCINIT	.section 'data'
  58  0000              @HCCINIT0	.section 'data'
  59  0000              @BITDATASEC	 .section 'data'
"File: irRemote.ASM  Assembler  Version HGASM0202      Page 2

  60  0000              @BITDATASEC1	 .section 'data'
  61  0000              
  62  0000              #pragma debug scope 1 1
  63  0000              	extern __DELAY3:near
  64  0000              	extern __DELAYX3:near
  65  0000              	extern __DELAYX6:near
  66  0000              	extern __DELAYY5:near
  67  0000              	extern __DELAYY3:near
  68  0000              	extern _builtin_holtek_delay_2:byte
  69  0000              ___stmc0 equ [47]
  70  0000              ___stmdh equ [50]
  71  0000              ___stmdl equ [49]
  72  0000              ___intc2 equ [19]
  73  0000              public _INT1_ISR
  74  0000              #pragma debug scope 2 1

  36  0000              #line 36 "c:\users\christon\downloads\projects\remote fan\remote fan\global(longway)\irRemote.c"
  36  0000              @INT1_ISR_code .section at 36 'code'
  36  0000              ifdef INTERRUPT_DELAY
  36  0000              	nop
  36  0000              endif
  36  0000  0080     E  	mov r1,a
  36  0001  070A        	mov a,status
  36  0002              ifndef INTERRUPT_DELAY
  36  0002  0080     E  	mov r2,a
  36  0003              endif
  36  0003  2800     R  	jmp _INT1_ISR
  36  0004              #pragma debug scope 1 1
  36  0004              @dummy36 endp
  36  0004              #pragma debug scope 3 1
  36  0000              _INT1_ISR .section 'code'
  36  0000              _INT1_ISR proc
  36  0000              ifdef INTERRUPT_DELAY
  36  0000              	mov r2,a
  36  0000              endif
  36  0000  0703        	mov a,mp
  36  0001  0080     E  	mov r3,a
  36  0002  0704        	mov a,sbp
  36  0003  0080     E  	mov r4,a
  37  0004              #line 37 "c:\users\christon\downloads\projects\remote fan\remote fan\global(longway)\irRemote.c"
  37  0004  35AF        	clr [47].3
  38  0005              #line 38 "c:\users\christon\downloads\projects\remote fan\remote fan\global(longway)\irRemote.c"
  38  0005  0732        	mov a,[50]
  38  0006  0080     R  	mov _timerCount[1],a
  39  0007              #line 39 "c:\users\christon\downloads\projects\remote fan\remote fan\global(longway)\irRemote.c"
  39  0007  0731        	mov a,[49]
  39  0008  0080     R  	mov _timerCount[0],a
  41  0009              #line 41 "c:\users\christon\downloads\projects\remote fan\remote fan\global(longway)\irRemote.c"
  41  0009  31AF        	set [47].3
  45  000A              #line 45 "c:\users\christon\downloads\projects\remote fan\remote fan\global(longway)\irRemote.c"
  45  000A  0700     R  	mov a,_irDataStage[0]
  45  000B  0A00        	sub a,0
  45  000C  3D0A        	sz z
  45  000D  2800     R  	jmp _L3
  45  000E  0A01        	sub a,(1)-(0)
  45  000F  3D0A        	sz z
  45  0010  2800     R  	jmp _L4
  45  0011              #line 45 "c:\users\christon\downloads\projects\remote fan\remote fan\global(longway)\irRemote.c"
  45  0011  0700     R  	mov a,_irDataStage[0]
  45  0012  0A02        	sub a,2
"File: irRemote.c    Assembler  Version HGASM0202      Page 3

  45  0013  390A        	snz z
  45  0014  2800     R  	jmp _L1
  45  0015  2800     R  	jmp _L10
  45  0016              _L3:
  55  0016              #line 55 "c:\users\christon\downloads\projects\remote fan\remote fan\global(longway)\irRemote.c"
  55  0016  0FCF        	mov a,207
  55  0017  0300     R  	add a,_timerCount[0]
  55  0018  0080     E  	mov rb,a
  55  0019  0FEE        	mov a,238
  55  001A  1300     R  	adc a,_timerCount[1]
  55  001B  0080     E  	mov rc,a
  55  001C  0F56        	mov a,86
  55  001D  0200     E  	sub a,rb
  55  001E  0F02        	mov a,2
  55  001F  1200     E  	sbc a,rc
  55  0020  380A        	snz c
  55  0021  2800     R  	jmp _L1
  57  0022              #line 57 "c:\users\christon\downloads\projects\remote fan\remote fan\global(longway)\irRemote.c"
  57  0022  0F01        	mov a,1
  57  0023  0080     R  	mov _irDataStage[0],a
  57  0024  2800     R  	jmp _L1
  57  0025              _L4:
  65  0025              #line 65 "c:\users\christon\downloads\projects\remote fan\remote fan\global(longway)\irRemote.c"
  65  0025  0FFD        	mov a,253
  65  0026  0300     R  	add a,_timerCount[0]
  65  0027  0080     E  	mov rb,a
  65  0028  0FF7        	mov a,247
  65  0029  1300     R  	adc a,_timerCount[1]
  65  002A  0080     E  	mov rc,a
  65  002B  0F12        	mov a,18
  65  002C  0200     E  	sub a,rb
  65  002D  0F05        	mov a,5
  65  002E  1200     E  	sbc a,rc
  65  002F  380A        	snz c
  65  0030  2800     R  	jmp _L7
  67  0031              #line 67 "c:\users\christon\downloads\projects\remote fan\remote fan\global(longway)\irRemote.c"
  67  0031  0F02        	mov a,2
  67  0032  0080     R  	mov _irDataStage[0],a
  68  0033              #line 68 "c:\users\christon\downloads\projects\remote fan\remote fan\global(longway)\irRemote.c"
  68  0033  1F00     R  	clr _irDataIndex[0]
  69  0034              #line 69 "c:\users\christon\downloads\projects\remote fan\remote fan\global(longway)\irRemote.c"
  69  0034  1F00     R  	clr _irIndex[0]
  70  0035              #line 70 "c:\users\christon\downloads\projects\remote fan\remote fan\global(longway)\irRemote.c"
  70  0035  1F00     R  	clr _irData[0]
  70  0036  1F00     R  	clr _irData[1]
  70  0037  1F00     R  	clr _irData[2]
  70  0038  1F00     R  	clr _irData[3]
  70  0039  2800     R  	jmp _L1
  70  003A              _L7:
  74  003A              #line 74 "c:\users\christon\downloads\projects\remote fan\remote fan\global(longway)\irRemote.c"
  74  003A  1F00     R  	clr _irDataStage[0]
  74  003B  2800     R  	jmp _L1
  74  003C              _L10:
  81  003C              #line 81 "c:\users\christon\downloads\projects\remote fan\remote fan\global(longway)\irRemote.c"
  81  003C  1400     R  	inca _irIndex[0]
  81  003D  0080     E  	mov ra,a
  81  003E  0700     E  	mov a,ra
  81  003F  0080     R  	mov _irIndex[0],a
  83  0040              #line 83 "c:\users\christon\downloads\projects\remote fan\remote fan\global(longway)\irRemote.c"
  83  0040  3C00     E  	sz ra.0
"File: irRemote.c    Assembler  Version HGASM0202      Page 4

  83  0041  2800     R  	jmp _L1
  87  0042              #line 87 "c:\users\christon\downloads\projects\remote fan\remote fan\global(longway)\irRemote.c"
  87  0042  0700     R  	mov a,_irDataIndex[0]
  87  0043  0080     E  	mov rb,a
  87  0044  1F00     E  	clr rc
  87  0045  1400     E  	inca rb
  87  0046  0080     E  	mov ra,a
  87  0047  0700     E  	mov a,ra
  87  0048  0080     R  	mov _irDataIndex[0],a
  87  0049  340A        	clr c
  87  004A  1A80     E  	rlc rb
  87  004B  1A80     E  	rlc rc
  87  004C  0F00     R  	mov a,low offset _tmArry
  87  004D  0300     E  	add a,rb
  87  004E  0083        	mov mp,a
  87  004F  0F00     R  	mov a,high offset _tmArry
  87  0050  1300     E  	adc a,rc
  87  0051  0084        	mov sbp,a
  87  0052  0700     R  	mov a,_timerCount[0]
  87  0053  0082        	mov ir,a
  87  0054  1483        	inc mp
  87  0055  0700     R  	mov a,_timerCount[1]
  87  0056  0082        	mov ir,a
  88  0057              #line 88 "c:\users\christon\downloads\projects\remote fan\remote fan\global(longway)\irRemote.c"
  88  0057  0F20        	mov a,32
  88  0058  0200     E  	sub a,ra
  88  0059  3C0A        	sz c
  88  005A  2800     R  	jmp _L1
  90  005B              #line 90 "c:\users\christon\downloads\projects\remote fan\remote fan\global(longway)\irRemote.c"
  90  005B  3000     R  	set _irDatavalid
  91  005C              #line 91 "c:\users\christon\downloads\projects\remote fan\remote fan\global(longway)\irRemote.c"
  91  005C  1F00     R  	clr _irDataStage[0]
  92  005D              #line 92 "c:\users\christon\downloads\projects\remote fan\remote fan\global(longway)\irRemote.c"
  92  005D  3493        	clr [19].1
  93  005E              #line 93 "c:\users\christon\downloads\projects\remote fan\remote fan\global(longway)\irRemote.c"
  93  005E  35AF        	clr [47].3
  93  005F              _L1:
  93  005F  0700     E  	mov a,r2
  93  0060  008A        	mov status,a
  93  0061  0700     E  	mov a,r3
  93  0062  0083        	mov mp,a
  93  0063  0700     E  	mov a,r4
  93  0064  0084        	mov sbp,a
  93  0065  0700     E  	mov a,r1
  93  0066  0004        	reti
  93  0067              _INT1_ISR endp
  93  0067              
  93  0067              #line 93 "c:\users\christon\downloads\projects\remote fan\remote fan\global(longway)\irRemote.c"
  93  0067              #pragma debug scope 1 1
  93  0067              public _getIrRemotedata
  93  0067              #pragma debug scope 4 1
 156  0067              #line 156 "c:\users\christon\downloads\projects\remote fan\remote fan\global(longway)\irRemote.c"
 156  0000              _getIrRemotedata .section 'code'
 156  0000              _getIrRemotedata proc
 156  0000              public _getIrRemotedata_2
 156  0000  0004[           local _getIrRemotedata_2 db 4 dup(?)	; 2,2
            00
            ]
 156  0004              #pragma debug pointer 42 14 4
 156  0004              #pragma debug pointer 42 14 4
"File: irRemote.c    Assembler  Version HGASM0202      Page 5

 156  0004              #pragma debug variable 42 4 _getIrRemotedata_2+0 "value"
 162  0004              #line 162 "c:\users\christon\downloads\projects\remote fan\remote fan\global(longway)\irRemote.c"
 162  0000  3800     R  	snz _irDatavalid
 162  0001  2800     R  	jmp _L17
 162  0002              #line 162 "c:\users\christon\downloads\projects\remote fan\remote fan\global(longway)\irRemote.c"
 162  0002  0F20        	mov a,32
 162  0003  0080     E  	mov rh,a
 162  0004  1F00     E  	clr ra
 162  0005  1F00     E  	clr rd
 162  0006  1F00     E  	clr re
 162  0007  1F00     E  	clr rf
 162  0008  1F00     E  	clr rg
 162  0009              _L16:
 167  0009              #line 167 "c:\users\christon\downloads\projects\remote fan\remote fan\global(longway)\irRemote.c"
 167  0009  0700     E  	mov a,rd
 167  000A  0380     E  	addm a,rd
 167  000B  0700     E  	mov a,re
 167  000C  1380     E  	adcm a,re
 167  000D  0700     E  	mov a,rf
 167  000E  1380     E  	adcm a,rf
 167  000F  0700     E  	mov a,rg
 167  0010  1380     E  	adcm a,rg
 169  0011              #line 169 "c:\users\christon\downloads\projects\remote fan\remote fan\global(longway)\irRemote.c"
 169  0011  0700     E  	mov a,ra
 169  0012  0080     E  	mov rb,a
 169  0013  1F00     E  	clr rc
 169  0014  340A        	clr c
 169  0015  1A80     E  	rlc rb
 169  0016  1A80     E  	rlc rc
 169  0017  0F00     R  	mov a,low offset _tmArry
 169  0018  0300     E  	add a,rb
 169  0019  0083        	mov mp,a
 169  001A  0F00     R  	mov a,high offset _tmArry
 169  001B  1300     E  	adc a,rc
 169  001C  0084        	mov sbp,a
 169  001D  2000     E  	call _Crom2Prom
 169  001E  0080     E  	mov rb,a
 169  001F  2000     E  	call _Crom2PromNext
 169  0020  0080     E  	mov rc,a
 169  0021  0F69        	mov a,105
 169  0022  0300     E  	add a,rb
 169  0023  0080     R  	mov _getIrRemotedata_2[2],a
 169  0024  0FFF        	mov a,255
 169  0025  1300     E  	adc a,rc
 169  0026  0080     R  	mov _getIrRemotedata_2[3],a
 169  0027  0FC6        	mov a,198
 169  0028  0200     R  	sub a,_getIrRemotedata_2[2]
 169  0029  0F00        	mov a,0
 169  002A  1200     R  	sbc a,_getIrRemotedata_2[3]
 169  002B  3C0A        	sz c
 169  002C  2800     R  	jmp _L13
 172  002D              #line 172 "c:\users\christon\downloads\projects\remote fan\remote fan\global(longway)\irRemote.c"
 172  002D  0F43        	mov a,67
 172  002E  0380     E  	addm a,rb
 172  002F  0FFD        	mov a,253
 172  0030  1380     E  	adcm a,rc
 172  0031  0F1E        	mov a,30
 172  0032  0200     E  	sub a,rb
 172  0033  0F03        	mov a,3
 172  0034  1200     E  	sbc a,rc
"File: irRemote.c    Assembler  Version HGASM0202      Page 6

 172  0035  380A        	snz c
 172  0036  2800     R  	jmp _L14
 174  0037              #line 174 "c:\users\christon\downloads\projects\remote fan\remote fan\global(longway)\irRemote.c"
 174  0037  0F00        	mov a,0
 174  0038  0580     E  	orm a,rg
 174  0039  0F00        	mov a,0
 174  003A  0580     E  	orm a,rf
 174  003B  0F00        	mov a,0
 174  003C  0580     E  	orm a,re
 174  003D  0F01        	mov a,1
 174  003E  0580     E  	orm a,rd
 174  003F  2800     R  	jmp _L13
 174  0040              _L14:
 177  0040              #line 177 "c:\users\christon\downloads\projects\remote fan\remote fan\global(longway)\irRemote.c"
 177  0040  1F00     R  	clr _irDataStage[0]
 178  0041              #line 178 "c:\users\christon\downloads\projects\remote fan\remote fan\global(longway)\irRemote.c"
 178  0041  3400     R  	clr _irDatavalid
 179  0042              #line 179 "c:\users\christon\downloads\projects\remote fan\remote fan\global(longway)\irRemote.c"
 179  0042  3093        	set [19].1
 179  0043  2800     R  	jmp _L17
 179  0044              _L13:
 165  0044              #line 165 "c:\users\christon\downloads\projects\remote fan\remote fan\global(longway)\irRemote.c"
 165  0044  1480     E  	inc ra
 165  0045  1780     E  	sdz rh
 165  0046  2800     R  	jmp _L16
 184  0047              #line 184 "c:\users\christon\downloads\projects\remote fan\remote fan\global(longway)\irRemote.c"
 184  0047  3400     R  	clr _irDatavalid
 185  0048              #line 185 "c:\users\christon\downloads\projects\remote fan\remote fan\global(longway)\irRemote.c"
 185  0048  0700     R  	mov a,_getIrRemotedata_2[0]
 185  0049  0083        	mov mp,a
 185  004A  0700     R  	mov a,_getIrRemotedata_2[1]
 185  004B  0084        	mov sbp,a
 185  004C  0700     E  	mov a,rd
 185  004D  0082        	mov ir,a
 185  004E  1483        	inc mp
 185  004F  0700     E  	mov a,re
 185  0050  0082        	mov ir,a
 185  0051  1483        	inc mp
 185  0052  0700     E  	mov a,rf
 185  0053  0082        	mov ir,a
 185  0054  1483        	inc mp
 185  0055  0700     E  	mov a,rg
 185  0056  0082        	mov ir,a
 186  0057              #line 186 "c:\users\christon\downloads\projects\remote fan\remote fan\global(longway)\irRemote.c"
 186  0057  3093        	set [19].1
 188  0058              #line 188 "c:\users\christon\downloads\projects\remote fan\remote fan\global(longway)\irRemote.c"
 188  0058  0F01        	mov a,1
 188  0059  0080     E  	mov ra,a
 188  005A  2800     R  	jmp _L12
 188  005B              _L17:
 192  005B              #line 192 "c:\users\christon\downloads\projects\remote fan\remote fan\global(longway)\irRemote.c"
 192  005B  1F00     E  	clr ra
 192  005C              _L12:
 197  005C              #line 197 "c:\users\christon\downloads\projects\remote fan\remote fan\global(longway)\irRemote.c"
 197  005C  0700     E  	mov a,ra
 197  005D  0003        	ret
 197  005E              _getIrRemotedata endp
 197  005E              #line 197 "c:\users\christon\downloads\projects\remote fan\remote fan\global(longway)\irRemote.c"
 197  005E              #pragma debug scope 1 1
 197  005E              public _irKeyProcess
"File: irRemote.c    Assembler  Version HGASM0202      Page 7

 197  005E              #pragma debug scope 5 1
 201  005E              #line 201 "c:\users\christon\downloads\projects\remote fan\remote fan\global(longway)\irRemote.c"
 201  0000              _irKeyProcess .section 'code'
 201  0000              _irKeyProcess proc
 201  0000              public _irKeyProcess_2
 201  0000  0004[           local _irKeyProcess_2 db 4 dup(?)	; 4,0
            00
            ]
 201  0004              #pragma debug variable 14 5 _irKeyProcess_2+0 "key"
 202  0004              #line 202 "c:\users\christon\downloads\projects\remote fan\remote fan\global(longway)\irRemote.c"
 202  0000  0700     R  	mov a,_irKeyProcess_2[0]
 202  0001  0080     E  	mov _keyPressIndiVal[0],a
 202  0002  0700     R  	mov a,_irKeyProcess_2[1]
 202  0003  0080     E  	mov _keyPressIndiVal[1],a
 202  0004  0700     R  	mov a,_irKeyProcess_2[2]
 202  0005  0080     E  	mov _keyPressIndiVal[2],a
 202  0006  0700     R  	mov a,_irKeyProcess_2[3]
 202  0007  0080     E  	mov _keyPressIndiVal[3],a
 240  0008              #line 240 "c:\users\christon\downloads\projects\remote fan\remote fan\global(longway)\irRemote.c"
 240  0008  0700     R  	mov a,_irKeyProcess_2[0]
 240  0009  0ADE        	sub a,222
 240  000A  0700     R  	mov a,_irKeyProcess_2[1]
 240  000B  0821        	sbc a,33
 240  000C  0700     R  	mov a,_irKeyProcess_2[2]
 240  000D  08FD        	sbc a,253
 240  000E  0700     R  	mov a,_irKeyProcess_2[3]
 240  000F  0802        	sbc a,2
 240  0010  3F0A        	sz cz
 240  0011  2800     R  	jmp _L20
 240  0012              #line 240 "c:\users\christon\downloads\projects\remote fan\remote fan\global(longway)\irRemote.c"
 240  0012  0700     R  	mov a,_irKeyProcess_2[0]
 240  0013  0ACE        	sub a,206
 240  0014  0700     R  	mov a,_irKeyProcess_2[1]
 240  0015  0831        	sbc a,49
 240  0016  0700     R  	mov a,_irKeyProcess_2[2]
 240  0017  08FD        	sbc a,253
 240  0018  0700     R  	mov a,_irKeyProcess_2[3]
 240  0019  0802        	sbc a,2
 240  001A  3F0A        	sz cz
 240  001B  2800     R  	jmp _L21
 240  001C  0700     R  	mov a,_irKeyProcess_2[0]
 240  001D  0AC6        	sub a,198
 240  001E  0700     R  	mov a,_irKeyProcess_2[1]
 240  001F  0839        	sbc a,57
 240  0020  0700     R  	mov a,_irKeyProcess_2[2]
 240  0021  08FD        	sbc a,253
 240  0022  0700     R  	mov a,_irKeyProcess_2[3]
 240  0023  0802        	sbc a,2
 240  0024  3F0A        	sz cz
 240  0025  2800     R  	jmp _L22
 240  0026  0700     R  	mov a,_irKeyProcess_2[0]
 240  0027  0ABE        	sub a,190
 240  0028  0700     R  	mov a,_irKeyProcess_2[1]
 240  0029  0841        	sbc a,65
 240  002A  0700     R  	mov a,_irKeyProcess_2[2]
 240  002B  08FD        	sbc a,253
 240  002C  0700     R  	mov a,_irKeyProcess_2[3]
 240  002D  0802        	sbc a,2
 240  002E  3F0A        	sz cz
 240  002F  2800     R  	jmp _L23
"File: irRemote.c    Assembler  Version HGASM0202      Page 8

 240  0030  0700     R  	mov a,_irKeyProcess_2[0]
 240  0031  0A9E        	sub a,158
 240  0032  0700     R  	mov a,_irKeyProcess_2[1]
 240  0033  0861        	sbc a,97
 240  0034  0700     R  	mov a,_irKeyProcess_2[2]
 240  0035  08FD        	sbc a,253
 240  0036  0700     R  	mov a,_irKeyProcess_2[3]
 240  0037  0802        	sbc a,2
 240  0038  3F0A        	sz cz
 240  0039  2800     R  	jmp _L24
 240  003A  0700     R  	mov a,_irKeyProcess_2[0]
 240  003B  0A66        	sub a,102
 240  003C  0700     R  	mov a,_irKeyProcess_2[1]
 240  003D  0899        	sbc a,153
 240  003E  0700     R  	mov a,_irKeyProcess_2[2]
 240  003F  08FD        	sbc a,253
 240  0040  0700     R  	mov a,_irKeyProcess_2[3]
 240  0041  0802        	sbc a,2
 240  0042  3F0A        	sz cz
 240  0043  2800     R  	jmp _L25
 240  0044  0700     R  	mov a,_irKeyProcess_2[0]
 240  0045  0A5E        	sub a,94
 240  0046  0700     R  	mov a,_irKeyProcess_2[1]
 240  0047  08A1        	sbc a,161
 240  0048  0700     R  	mov a,_irKeyProcess_2[2]
 240  0049  08FD        	sbc a,253
 240  004A  0700     R  	mov a,_irKeyProcess_2[3]
 240  004B  0802        	sbc a,2
 240  004C  3F0A        	sz cz
 240  004D  2800     R  	jmp _L26
 240  004E  0700     R  	mov a,_irKeyProcess_2[0]
 240  004F  0A3E        	sub a,62
 240  0050  0700     R  	mov a,_irKeyProcess_2[1]
 240  0051  08C1        	sbc a,193
 240  0052  0700     R  	mov a,_irKeyProcess_2[2]
 240  0053  08FD        	sbc a,253
 240  0054  0700     R  	mov a,_irKeyProcess_2[3]
 240  0055  0802        	sbc a,2
 240  0056  3F0A        	sz cz
 240  0057  2800     R  	jmp _L27
 240  0058  0700     R  	mov a,_irKeyProcess_2[0]
 240  0059  0A2E        	sub a,46
 240  005A  0700     R  	mov a,_irKeyProcess_2[1]
 240  005B  08D1        	sbc a,209
 240  005C  0700     R  	mov a,_irKeyProcess_2[2]
 240  005D  08FD        	sbc a,253
 240  005E  0700     R  	mov a,_irKeyProcess_2[3]
 240  005F  0802        	sbc a,2
 240  0060  3B0A        	snz cz
 240  0061  2800     R  	jmp _L18
 240  0062  2800     R  	jmp _L38
 240  0063              _L23:
 246  0063              #line 246 "c:\users\christon\downloads\projects\remote fan\remote fan\global(longway)\irRemote.c"
 246  0063  0700     E  	mov a,_fanSpeed[0]
 246  0064  0080     E  	mov _lastSpeed[0],a
 248  0065              #line 248 "c:\users\christon\downloads\projects\remote fan\remote fan\global(longway)\irRemote.c"
 248  0065  0F01        	mov a,1
 248  0066  0080     E  	mov _fanSpeed[0],a
 250  0067              #line 250 "c:\users\christon\downloads\projects\remote fan\remote fan\global(longway)\irRemote.c"
 250  0067  1F00     E  	clr _buzz_count[0]
"File: irRemote.c    Assembler  Version HGASM0202      Page 9

 250  0068  1F00     E  	clr _buzz_count[1]
 251  0069              #line 251 "c:\users\christon\downloads\projects\remote fan\remote fan\global(longway)\irRemote.c"
 251  0069  0F02        	mov a,2
 251  006A  0080     E  	mov _BUZZ_STOP[0],a
 251  006B  1F00     E  	clr _BUZZ_STOP[1]
 252  006C              #line 252 "c:\users\christon\downloads\projects\remote fan\remote fan\global(longway)\irRemote.c"
 252  006C  3000     E  	set _BUZZ_FLAG
 253  006D              #line 253 "c:\users\christon\downloads\projects\remote fan\remote fan\global(longway)\irRemote.c"
 253  006D  0F02        	mov a,2
 253  006E  0080     E  	mov _change[0],a
 253  006F  1F00     E  	clr _change[1]
 253  0070  2800     R  	jmp _L37
 253  0071              _L27:
 268  0071              #line 268 "c:\users\christon\downloads\projects\remote fan\remote fan\global(longway)\irRemote.c"
 268  0071  0700     E  	mov a,_fanSpeed[0]
 268  0072  0080     E  	mov _lastSpeed[0],a
 270  0073              #line 270 "c:\users\christon\downloads\projects\remote fan\remote fan\global(longway)\irRemote.c"
 270  0073  0F02        	mov a,2
 270  0074  0080     E  	mov _fanSpeed[0],a
 272  0075              #line 272 "c:\users\christon\downloads\projects\remote fan\remote fan\global(longway)\irRemote.c"
 272  0075  1F00     E  	clr _buzz_count[0]
 272  0076  1F00     E  	clr _buzz_count[1]
 273  0077              #line 273 "c:\users\christon\downloads\projects\remote fan\remote fan\global(longway)\irRemote.c"
 273  0077  0F02        	mov a,2
 273  0078  0080     E  	mov _BUZZ_STOP[0],a
 273  0079  1F00     E  	clr _BUZZ_STOP[1]
 274  007A              #line 274 "c:\users\christon\downloads\projects\remote fan\remote fan\global(longway)\irRemote.c"
 274  007A  3000     E  	set _BUZZ_FLAG
 275  007B              #line 275 "c:\users\christon\downloads\projects\remote fan\remote fan\global(longway)\irRemote.c"
 275  007B  0F04        	mov a,4
 275  007C  0080     E  	mov _change[0],a
 275  007D  1F00     E  	clr _change[1]
 275  007E              _L37:
 276  007E              #line 276 "c:\users\christon\downloads\projects\remote fan\remote fan\global(longway)\irRemote.c"
 276  007E  3000     E  	set _LED_INDICATON_FLAG
 284  007F              #line 284 "c:\users\christon\downloads\projects\remote fan\remote fan\global(longway)\irRemote.c"
 284  007F  2800     R  	jmp _L18
 284  0080              _L20:
 288  0080              #line 288 "c:\users\christon\downloads\projects\remote fan\remote fan\global(longway)\irRemote.c"
 288  0080  0700     E  	mov a,_fanSpeed[0]
 288  0081  0080     E  	mov _lastSpeed[0],a
 290  0082              #line 290 "c:\users\christon\downloads\projects\remote fan\remote fan\global(longway)\irRemote.c"
 290  0082  0F03        	mov a,3
 290  0083  0080     E  	mov _fanSpeed[0],a
 292  0084              #line 292 "c:\users\christon\downloads\projects\remote fan\remote fan\global(longway)\irRemote.c"
 292  0084  1F00     E  	clr _buzz_count[0]
 292  0085  1F00     E  	clr _buzz_count[1]
 293  0086              #line 293 "c:\users\christon\downloads\projects\remote fan\remote fan\global(longway)\irRemote.c"
 293  0086  0F02        	mov a,2
 293  0087  0080     E  	mov _BUZZ_STOP[0],a
 293  0088  1F00     E  	clr _BUZZ_STOP[1]
 294  0089              #line 294 "c:\users\christon\downloads\projects\remote fan\remote fan\global(longway)\irRemote.c"
 294  0089  3000     E  	set _BUZZ_FLAG
 295  008A              #line 295 "c:\users\christon\downloads\projects\remote fan\remote fan\global(longway)\irRemote.c"
 295  008A  0F06        	mov a,6
 295  008B  0080     E  	mov _change[0],a
 295  008C  1F00     E  	clr _change[1]
 295  008D  2800     R  	jmp _L37
 295  008E              _L26:
 308  008E              #line 308 "c:\users\christon\downloads\projects\remote fan\remote fan\global(longway)\irRemote.c"
"File: irRemote.c    Assembler  Version HGASM0202      Page 10

 308  008E  0700     E  	mov a,_fanSpeed[0]
 308  008F  0080     E  	mov _lastSpeed[0],a
 310  0090              #line 310 "c:\users\christon\downloads\projects\remote fan\remote fan\global(longway)\irRemote.c"
 310  0090  0F04        	mov a,4
 310  0091  0080     E  	mov _fanSpeed[0],a
 312  0092              #line 312 "c:\users\christon\downloads\projects\remote fan\remote fan\global(longway)\irRemote.c"
 312  0092  1F00     E  	clr _buzz_count[0]
 312  0093  1F00     E  	clr _buzz_count[1]
 313  0094              #line 313 "c:\users\christon\downloads\projects\remote fan\remote fan\global(longway)\irRemote.c"
 313  0094  0F02        	mov a,2
 313  0095  0080     E  	mov _BUZZ_STOP[0],a
 313  0096  1F00     E  	clr _BUZZ_STOP[1]
 314  0097              #line 314 "c:\users\christon\downloads\projects\remote fan\remote fan\global(longway)\irRemote.c"
 314  0097  3000     E  	set _BUZZ_FLAG
 315  0098              #line 315 "c:\users\christon\downloads\projects\remote fan\remote fan\global(longway)\irRemote.c"
 315  0098  0F08        	mov a,8
 315  0099  0080     E  	mov _change[0],a
 315  009A  1F00     E  	clr _change[1]
 315  009B  2800     R  	jmp _L37
 315  009C              _L24:
 328  009C              #line 328 "c:\users\christon\downloads\projects\remote fan\remote fan\global(longway)\irRemote.c"
 328  009C  0700     E  	mov a,_fanSpeed[0]
 328  009D  0080     E  	mov _lastSpeed[0],a
 330  009E              #line 330 "c:\users\christon\downloads\projects\remote fan\remote fan\global(longway)\irRemote.c"
 330  009E  0F05        	mov a,5
 330  009F  0080     E  	mov _fanSpeed[0],a
 331  00A0              #line 331 "c:\users\christon\downloads\projects\remote fan\remote fan\global(longway)\irRemote.c"
 331  00A0  1F00     E  	clr _buzz_count[0]
 331  00A1  1F00     E  	clr _buzz_count[1]
 332  00A2              #line 332 "c:\users\christon\downloads\projects\remote fan\remote fan\global(longway)\irRemote.c"
 332  00A2  0F02        	mov a,2
 332  00A3  0080     E  	mov _BUZZ_STOP[0],a
 332  00A4  1F00     E  	clr _BUZZ_STOP[1]
 333  00A5              #line 333 "c:\users\christon\downloads\projects\remote fan\remote fan\global(longway)\irRemote.c"
 333  00A5  3000     E  	set _BUZZ_FLAG
 335  00A6              #line 335 "c:\users\christon\downloads\projects\remote fan\remote fan\global(longway)\irRemote.c"
 335  00A6  0F0A        	mov a,10
 335  00A7  0080     E  	mov _change[0],a
 335  00A8  1F00     E  	clr _change[1]
 335  00A9  2800     R  	jmp _L37
 335  00AA              _L38:
 389  00AA              #line 389 "c:\users\christon\downloads\projects\remote fan\remote fan\global(longway)\irRemote.c"
 389  00AA  3C00     E  	sz _powerBtn
 389  00AB  2800     R  	jmp _L18
 391  00AC              #line 391 "c:\users\christon\downloads\projects\remote fan\remote fan\global(longway)\irRemote.c"
 391  00AC  3000     E  	set _powerBtn
 392  00AD              #line 392 "c:\users\christon\downloads\projects\remote fan\remote fan\global(longway)\irRemote.c"
 392  00AD  3400     E  	clr _LED_FLAG
 393  00AE              #line 393 "c:\users\christon\downloads\projects\remote fan\remote fan\global(longway)\irRemote.c"
 393  00AE  0700     E  	mov a,_fanSpeed[0]
 393  00AF  0080     E  	mov ra,a
 393  00B0  0700     E  	mov a,ra
 393  00B1  0080     E  	mov _lastSpeed[0],a
 394  00B2              #line 394 "c:\users\christon\downloads\projects\remote fan\remote fan\global(longway)\irRemote.c"
 394  00B2  0700     E  	mov a,ra
 394  00B3  0080     E  	mov _EEWriteChar_2[0],a
 394  00B4  0F00        	mov a,0
 394  00B5  2000     E  	call _EEWriteChar
 395  00B6              #line 395 "c:\users\christon\downloads\projects\remote fan\remote fan\global(longway)\irRemote.c"
 395  00B6  1F00     E  	clr _fanSpeed[0]
"File: irRemote.c    Assembler  Version HGASM0202      Page 11

 396  00B7              #line 396 "c:\users\christon\downloads\projects\remote fan\remote fan\global(longway)\irRemote.c"
 396  00B7  0F02        	mov a,2
 396  00B8  0080     E  	mov _change[0],a
 396  00B9  1F00     E  	clr _change[1]
 398  00BA              #line 398 "c:\users\christon\downloads\projects\remote fan\remote fan\global(longway)\irRemote.c"
 398  00BA  1F00     E  	clr _buzz_count[0]
 398  00BB  1F00     E  	clr _buzz_count[1]
 399  00BC              #line 399 "c:\users\christon\downloads\projects\remote fan\remote fan\global(longway)\irRemote.c"
 399  00BC  0F04        	mov a,4
 399  00BD  0080     E  	mov _BUZZ_STOP[0],a
 399  00BE  1F00     E  	clr _BUZZ_STOP[1]
 400  00BF              #line 400 "c:\users\christon\downloads\projects\remote fan\remote fan\global(longway)\irRemote.c"
 400  00BF  3000     E  	set _BUZZ_FLAG
 406  00C0              #line 406 "c:\users\christon\downloads\projects\remote fan\remote fan\global(longway)\irRemote.c"
 406  00C0  3000     E  	set _powerBtn
 406  00C1  2800     R  	jmp _L18
 406  00C2              _L21:
 413  00C2              #line 413 "c:\users\christon\downloads\projects\remote fan\remote fan\global(longway)\irRemote.c"
 413  00C2  3800     E  	snz _powerBtn
 413  00C3  2800     R  	jmp _L18
 415  00C4              #line 415 "c:\users\christon\downloads\projects\remote fan\remote fan\global(longway)\irRemote.c"
 415  00C4  3400     E  	clr _powerBtn
 418  00C5              #line 418 "c:\users\christon\downloads\projects\remote fan\remote fan\global(longway)\irRemote.c"
 418  00C5  0F00        	mov a,0
 418  00C6  2000     E  	call _EEReadChar
 418  00C7  0080     E  	mov ra,a
 419  00C8              #line 419 "c:\users\christon\downloads\projects\remote fan\remote fan\global(longway)\irRemote.c"
 419  00C8  1500     E  	deca ra
 419  00C9  0080     E  	mov rb,a
 419  00CA  0F04        	mov a,4
 419  00CB  0200     E  	sub a,rb
 419  00CC  380A        	snz c
 419  00CD  2800     R  	jmp _L29
 418  00CE              #line 418 "c:\users\christon\downloads\projects\remote fan\remote fan\global(longway)\irRemote.c"
 418  00CE  0700     E  	mov a,ra
 418  00CF  0080     E  	mov _lastSpeed[0],a
 418  00D0  2800     R  	jmp _L30
 418  00D1              _L29:
 420  00D1              #line 420 "c:\users\christon\downloads\projects\remote fan\remote fan\global(longway)\irRemote.c"
 420  00D1  0F05        	mov a,5
 420  00D2  0080     E  	mov _lastSpeed[0],a
 420  00D3              _L30:
 421  00D3              #line 421 "c:\users\christon\downloads\projects\remote fan\remote fan\global(longway)\irRemote.c"
 421  00D3  0700     E  	mov a,_lastSpeed[0]
 421  00D4  0080     E  	mov rb,a
 421  00D5  1F00     E  	clr rc
 421  00D6  0700     E  	mov a,rb
 421  00D7  0080     E  	mov _fanSpeed[0],a
 422  00D8              #line 422 "c:\users\christon\downloads\projects\remote fan\remote fan\global(longway)\irRemote.c"
 422  00D8  3000     E  	set _LED_INDICATON_FLAG
 422  00D9  2800     R  	jmp _L35
 422  00DA              _L25:
 433  00DA              #line 433 "c:\users\christon\downloads\projects\remote fan\remote fan\global(longway)\irRemote.c"
 433  00DA  0F01        	mov a,1
 433  00DB  0300     E  	add a,_fanSpeed[0]
 433  00DC  0080     E  	mov rb,a
 433  00DD  0F00        	mov a,0
 433  00DE  1F00     E  	clr rc
 433  00DF  1380     E  	adcm a,rc
 434  00E0              #line 434 "c:\users\christon\downloads\projects\remote fan\remote fan\global(longway)\irRemote.c"
"File: irRemote.c    Assembler  Version HGASM0202      Page 12

 434  00E0  0F04        	mov a,4
 434  00E1  0200     E  	sub a,rb
 434  00E2  0F00        	mov a,0
 434  00E3  1200     E  	sbc a,rc
 434  00E4  380A        	snz c
 434  00E5  2800     R  	jmp _L31
 433  00E6              #line 433 "c:\users\christon\downloads\projects\remote fan\remote fan\global(longway)\irRemote.c"
 433  00E6  0700     E  	mov a,rb
 433  00E7  0080     R  	mov _speed_temp[0],a
 433  00E8  0700     E  	mov a,rc
 433  00E9  0080     R  	mov _speed_temp[1],a
 433  00EA  2800     R  	jmp _L32
 433  00EB              _L31:
 435  00EB              #line 435 "c:\users\christon\downloads\projects\remote fan\remote fan\global(longway)\irRemote.c"
 435  00EB  0F05        	mov a,5
 435  00EC  0080     R  	mov _speed_temp[0],a
 435  00ED  1F00     R  	clr _speed_temp[1]
 435  00EE              _L32:
 436  00EE              #line 436 "c:\users\christon\downloads\projects\remote fan\remote fan\global(longway)\irRemote.c"
 436  00EE  0700     R  	mov a,_speed_temp[0]
 436  00EF  0080     E  	mov rb,a
 436  00F0  0700     R  	mov a,_speed_temp[1]
 436  00F1  0080     E  	mov rc,a
 436  00F2  0700     E  	mov a,rb
 436  00F3  0080     E  	mov _fanSpeed[0],a
 437  00F4              #line 437 "c:\users\christon\downloads\projects\remote fan\remote fan\global(longway)\irRemote.c"
 437  00F4  3000     E  	set _LED_INDICATON_FLAG
 437  00F5  2800     R  	jmp _L36
 437  00F6              _L22:
 447  00F6              #line 447 "c:\users\christon\downloads\projects\remote fan\remote fan\global(longway)\irRemote.c"
 447  00F6  0700     E  	mov a,_fanSpeed[0]
 447  00F7  0080     E  	mov rb,a
 447  00F8  1F00     E  	clr rc
 448  00F9              #line 448 "c:\users\christon\downloads\projects\remote fan\remote fan\global(longway)\irRemote.c"
 448  00F9  0700     E  	mov a,rb
 448  00FA  0500     E  	or a,rc
 448  00FB  390A        	snz z
 448  00FC  2800     R  	jmp _L33
 447  00FD              #line 447 "c:\users\christon\downloads\projects\remote fan\remote fan\global(longway)\irRemote.c"
 447  00FD  1F00     R  	clr _speed_temp[0]
 447  00FE  1F00     R  	clr _speed_temp[1]
 447  00FF  2800     R  	jmp _L34
 447  0100              _L33:
 449  0100              #line 449 "c:\users\christon\downloads\projects\remote fan\remote fan\global(longway)\irRemote.c"
 449  0100  0FFF        	mov a,255
 449  0101  0300     E  	add a,rb
 449  0102  0080     R  	mov _speed_temp[0],a
 449  0103  0FFF        	mov a,255
 449  0104  1300     E  	adc a,rc
 449  0105  0080     R  	mov _speed_temp[1],a
 449  0106              _L34:
 452  0106              #line 452 "c:\users\christon\downloads\projects\remote fan\remote fan\global(longway)\irRemote.c"
 452  0106  0700     R  	mov a,_speed_temp[0]
 452  0107  0080     E  	mov rb,a
 452  0108  0700     R  	mov a,_speed_temp[1]
 452  0109  0080     E  	mov rc,a
 452  010A  0700     E  	mov a,rb
 452  010B  0080     E  	mov _fanSpeed[0],a
 452  010C              _L36:
 452  010C  0FFF        	mov a,255  
"File: irRemote.c    Assembler  Version HGASM0202      Page 13

 452  010D  0680     E  	andm a,rb  
 452  010E  0F00        	mov a,0  
 452  010F  0680     E  	andm a,rc
 452  0110              _L35:
 453  0110              #line 453 "c:\users\christon\downloads\projects\remote fan\remote fan\global(longway)\irRemote.c"
 453  0110  340A        	clr c
 453  0111  1A00     E  	rlca rb
 453  0112  0080     E  	mov _change[0],a
 453  0113  1A00     E  	rlca rc
 453  0114  0080     E  	mov _change[1],a
 454  0115              #line 454 "c:\users\christon\downloads\projects\remote fan\remote fan\global(longway)\irRemote.c"
 454  0115  1F00     E  	clr _buzz_count[0]
 454  0116  1F00     E  	clr _buzz_count[1]
 455  0117              #line 455 "c:\users\christon\downloads\projects\remote fan\remote fan\global(longway)\irRemote.c"
 455  0117  0F02        	mov a,2
 455  0118  0080     E  	mov _BUZZ_STOP[0],a
 455  0119  1F00     E  	clr _BUZZ_STOP[1]
 456  011A              #line 456 "c:\users\christon\downloads\projects\remote fan\remote fan\global(longway)\irRemote.c"
 456  011A  3000     E  	set _BUZZ_FLAG
 456  011B              _L18:
 456  011B  0003        	ret
 456  011C              _irKeyProcess endp
 456  011C              #line 456 "c:\users\christon\downloads\projects\remote fan\remote fan\global(longway)\irRemote.c"
 456  011C              #pragma debug scope 1 1
 456  011C              public _toggle
 456  0000              @HCCINIT	.section 'data'
  21  0000              #line 21 "c:\users\christon\downloads\projects\remote fan\remote fan\global(longway)\irRemote.c"
  21  0000              @HCCINIT_toggle .section 'data'
  21  0000              _toggle label byte
  21  0000              #pragma debug variable 8 1 _toggle "toggle"
  21  0000              	db 0
  21  0000              @ROMDATA_BASE .section inpage 'code'
  21  0000              	db 0
  21  0001              @HCCINIT_toggle .section 'data'
  21  0001              public _irDatavalid
  14  0001              #line 14 "c:\users\christon\downloads\projects\remote fan\remote fan\global(longway)\irRemote.c"
  14  0000              @BITDATASEC .section 'data'
  14  0000  00          _irDatavalid	dbit 0
  14  0001              #pragma debug variable 2 1 _irDatavalid "irDatavalid"
  14  0001              public _irData
  13  0001              #line 13 "c:\users\christon\downloads\projects\remote fan\remote fan\global(longway)\irRemote.c"
  13  0000              @HCCINIT_irData .section 'data'
  13  0000              _irData label byte
  13  0000              #pragma debug variable 14 1 _irData "irData"
  13  0000              	db 0
  13  0001              @ROMDATA_BASE .section inpage 'code'
  13  0001              	db 0
  13  0001              @HCCINIT_irData .section 'data'
  13  0001              	db 0
  13  0001              @ROMDATA_BASE .section inpage 'code'
  13  0001              	db 0
  13  0002              @HCCINIT_irData .section 'data'
  13  0002              	db 0
  13  0002              @ROMDATA_BASE .section inpage 'code'
  13  0002              	db 0
  13  0003              @HCCINIT_irData .section 'data'
  13  0003              	db 0
  13  0002              @ROMDATA_BASE .section inpage 'code'
  13  0002              	db 0
  13  0004              @HCCINIT_irData .section 'data'
"File: irRemote.c    Assembler  Version HGASM0202      Page 14

  13  0004              public _irIndex
  12  0004              #line 12 "c:\users\christon\downloads\projects\remote fan\remote fan\global(longway)\irRemote.c"
  12  0000              @HCCINIT_irIndex .section 'data'
  12  0000              _irIndex label byte
  12  0000              #pragma debug variable 8 1 _irIndex "irIndex"
  12  0000              	db 0
  12  0003              @ROMDATA_BASE .section inpage 'code'
  12  0003              	db 0
  12  0001              @HCCINIT_irIndex .section 'data'
  12  0001              public _irDataIndex
  12  0001              #line 12 "c:\users\christon\downloads\projects\remote fan\remote fan\global(longway)\irRemote.c"
  12  0000              @HCCINIT_irDataIndex .section 'data'
  12  0000              _irDataIndex label byte
  12  0000              #pragma debug variable 8 1 _irDataIndex "irDataIndex"
  12  0000              	db 0
  12  0003              @ROMDATA_BASE .section inpage 'code'
  12  0003              	db 0
  12  0001              @HCCINIT_irDataIndex .section 'data'
  12  0001              public _irDataStage
  12  0001              #line 12 "c:\users\christon\downloads\projects\remote fan\remote fan\global(longway)\irRemote.c"
  12  0000              @HCCINIT_irDataStage .section 'data'
  12  0000              _irDataStage label byte
  12  0000              #pragma debug variable 8 1 _irDataStage "irDataStage"
  12  0000              	db 0
  12  0004              @ROMDATA_BASE .section inpage 'code'
  12  0004              	db 0
  12  0001              @HCCINIT_irDataStage .section 'data'
  11  0001              #line 11 "c:\users\christon\downloads\projects\remote fan\remote fan\global(longway)\irRemote.c"
  11  0001              public _timerCount
  11  0000              @HCCINIT0_timerCount .section 'data'
  11  0000  0002[       _timerCount	db 2 dup(0)
            00
            ]
  11  0002              #pragma debug union_end
  11  0002              #pragma debug union_end
  11  0002              #pragma debug variable 43 1 _timerCount "timerCount"
  11  0002              
  11  0000              @HCCINIT .section 'data'
  11  0000              public _tmindex
  10  0000              #line 10 "c:\users\christon\downloads\projects\remote fan\remote fan\global(longway)\irRemote.c"
  10  0000              @HCCINIT_tmindex .section 'data'
  10  0000              _tmindex label byte
  10  0000              #pragma debug variable 8 1 _tmindex "tmindex"
  10  0000              	db 0
  10  0004              @ROMDATA_BASE .section inpage 'code'
  10  0004              	db 0
  10  0001              @HCCINIT_tmindex .section 'data'
   9  0001              #line 9 "c:\users\christon\downloads\projects\remote fan\remote fan\global(longway)\irRemote.c"
   9  0001              public _speed_temp
   9  0000              @HCCINIT0_speed_temp .section 'data'
   9  0000  0002[       _speed_temp	db 2 dup(0)
            00
            ]
   9  0002              #pragma debug variable 12 1 _speed_temp "speed_temp"
   9  0002              
   9  0000              @HCCINIT .section 'data'
   9  0000              #line 9 "c:\users\christon\downloads\projects\remote fan\remote fan\global(longway)\irRemote.c"
   9  0000              public _tmArry
   9  0000              @HCCINIT0_tmArry .section 'data'
   9  0000  0080[       _tmArry	db 128 dup(0)
"File: irRemote.c    Assembler  Version HGASM0202      Page 15

            00
            ]
   9  0080              #pragma debug array 44 12 64 1
   9  0080              #pragma debug array 44 12 64 1
   9  0080              #pragma debug variable 44 1 _tmArry "tmArry"
   9  0080              
   9  0000              @HCCINIT .section 'data'
   9  0000              #pragma debug struct_end
   9  0000              #pragma debug struct_end
   9  0000              #pragma debug union_end
   9  0000              #pragma debug union_end
   9  0000              #pragma debug variable 46 1 ___intc2 "__intc2" 1
   9  0000              #pragma debug struct_end
   9  0000              #pragma debug struct_end
   9  0000              #pragma debug union_end
   9  0000              #pragma debug union_end
   9  0000              #pragma debug variable 48 1 ___stmc0 "__stmc0" 1
   9  0000              #pragma debug variable 8 1 ___stmdl "__stmdl" 1
   9  0000              #pragma debug variable 8 1 ___stmdh "__stmdh" 1
   9  0000              
   9  0000              ; output external variables
   9  0000              extern _LED_FLAG:bit
   9  0000              extern _powerBtn:bit
   9  0000              extern _LED_INDICATON_FLAG:bit
   9  0000              extern _change:byte
   9  0000              extern _BUZZ_FLAG:bit
   9  0000              extern _BUZZ_STOP:byte
   9  0000              extern _buzz_count:byte
   9  0000              extern _lastSpeed:byte
   9  0000              extern _fanSpeed:byte
   9  0000              extern _keyPressIndiVal:byte
   9  0000              extern r1:byte
   9  0000              extern r2:byte
   9  0000              extern r3:byte
   9  0000              extern r4:byte
   9  0000              extern _EEWriteChar_2:byte
   9  0000              extern _EEWriteChar:near
   9  0000              extern _EEReadChar:near
   9  0000              
   9  0000              ; 
   9  0000              ; Generated by holtek-gcc v3.19, Thu Dec 16 15:19:27 2021
   9  0000              ; Rebuild 718
   9  0000              ; end of file


        0 Errors, 0