"File: Remote Fan.c  Assembler  Version HGASM0202      Page 1


   1  0000              ; Generated by holtek-gcc v3.19, Tue Apr 05 13:18:20 2022
   2  0000              ; 
   3  0000              ; Configuration:
   4  0000              ;       with long instruction
   5  0000              ;       Single ROM, Multi-RAM
   6  0000              ;       bits_per_rom_unit:16
   7  0000              ;       with mp1
   8  0000              ;       with tbhp, address(0x9)
   9  0000              ;          Use tabrd-const
  10  0000              ;       
  11  0000              ; SFR address of long-instruction arch:
  12  0000              ;    mp0 = -1,1,0
  13  0000              ;    mp1 = 4,3,2
  14  0000              ;    mp2 = 14,13,12
  15  0000              ;    tbp = 9,7,8
  16  0000              ;    acc = 5
  17  0000              ;    pcl = 6
  18  0000              ;    status = 10
  19  0000              ;    bp = 11
  20  0000              ;    intc = 17
  21  0000              ;       
  22  0000              ;       
  23  0000              ; use 'tabrdc' instead of 'tabrd'
  24  0000              ;       
  25  0000              
  26  0000              #pragma translator "holtek-gcc 4.6.4" "3.19" "build 20130711"
  27  0000              ; Rebuild 718
  28  0000              
  29  0000              ir equ [2]
  30  0000              mp equ [3]
  31  0000              sbp equ [4]
  32  0000              acc equ [5]
  33  0000              bp equ [11]
  34  0000              tblp equ [7]
  35  0000              tbhp equ [9]
  36  0000              status equ [10]
  37  0000              c equ [10].0
  38  0000              ac equ [10].1
  39  0000              z equ [10].2
  40  0000              ov equ [10].3
  41  0000              cz equ [10].6
  42  0000              sc equ [10].7
  43  0000              intc equ [17]
  44  0000              
  45  0000              extern ra:byte
  46  0000              extern rb:byte
  47  0000              extern rc:byte
  48  0000              extern rd:byte
  49  0000              extern re:byte
  50  0000              extern rf:byte
  51  0000              extern rg:byte
  52  0000              extern rh:byte
  53  0000              extern _Crom2Prom:near
  54  0000              extern _Crom2PromNext:near
  55  0000              
  56  0000              RAMBANK 0 @BITDATASEC, @BITDATASEC1
  57  0000              @HCCINIT	.section 'data'
  58  0000              @HCCINIT0	.section 'data'
  59  0000              @BITDATASEC	 .section 'data'
"File: Remote Fan.ASM  Assembler  Version HGASM0202      Page 2

  60  0000              @BITDATASEC1	 .section 'data'
  61  0000              
  62  0000              #pragma debug scope 1 1
  63  0000              	extern __DELAY3:near
  64  0000              	extern __DELAYX3:near
  65  0000              	extern __DELAYX6:near
  66  0000              	extern __DELAYY5:near
  67  0000              	extern __DELAYY3:near
  68  0000              	extern _builtin_holtek_delay_2:byte
  69  0000              ___intc0 equ [17]
  70  0000              ___ptmc0 equ [55]
  71  0000              ___pa equ [20]
  72  0000              ___pc equ [65]
  73  0000              public _INT0_ISR
  74  0000              #pragma debug scope 2 1

 346  0000              #line 346 "d:\projects\bldc fan\remote fan final to production\global(longway)1\Remote Fan.c"
 346  0000              @INT0_ISR_code .section at 4 'code'
 346  0000              ifdef INTERRUPT_DELAY
 346  0000              	nop
 346  0000              endif
 346  0000  0080     E  	mov r1,a
 346  0001  070A        	mov a,status
 346  0002              ifndef INTERRUPT_DELAY
 346  0002  0080     E  	mov r2,a
 346  0003              endif
 346  0003  2800     R  	jmp _INT0_ISR
 346  0004              #pragma debug scope 1 1
 346  0004              @dummy4 endp
 346  0004              #pragma debug scope 3 1
 346  0000              _INT0_ISR .section 'code'
 346  0000              _INT0_ISR proc
 346  0000              ifdef INTERRUPT_DELAY
 346  0000              	mov r2,a
 346  0000              endif
 348  0000              #line 348 "d:\projects\bldc fan\remote fan final to production\global(longway)1\Remote Fan.c"
 348  0000  3611        	clr [17].4
 349  0001              #line 349 "d:\projects\bldc fan\remote fan final to production\global(longway)1\Remote Fan.c"
 349  0001  35B7        	clr [55].3
 355  0002              #line 355 "d:\projects\bldc fan\remote fan final to production\global(longway)1\Remote Fan.c"
 355  0002  0700     R  	mov a,_TRIAC_INT[0]
 355  0003  0A07        	sub a,7
 355  0004  3D0A        	sz z
 355  0005  2800     R  	jmp _L3
 355  0006  0A01        	sub a,(8)-(7)
 355  0007  3D0A        	sz z
 355  0008  2800     R  	jmp _L4
 355  0009              #line 355 "d:\projects\bldc fan\remote fan final to production\global(longway)1\Remote Fan.c"
 355  0009  0700     R  	mov a,_TRIAC_INT[0]
 355  000A  0A09        	sub a,9
 355  000B  3D0A        	sz z
 355  000C  2800     R  	jmp _L5
 355  000D  0A01        	sub a,(10)-(9)
 355  000E  3D0A        	sz z
 355  000F  2800     R  	jmp _L6
 355  0010  0700     R  	mov a,_TRIAC_INT[0]
 355  0011  0A0B        	sub a,11
 355  0012  3D0A        	sz z
 355  0013  2800     R  	jmp _L7
 355  0014  0A01        	sub a,(12)-(11)
"File: Remote Fan.c  Assembler  Version HGASM0202      Page 3

 355  0015  3D0A        	sz z
 355  0016  2800     R  	jmp _L8
 355  0017  0700     R  	mov a,_TRIAC_INT[0]
 355  0018  0A0D        	sub a,13
 355  0019  3D0A        	sz z
 355  001A  2800     R  	jmp _L9
 355  001B  0A01        	sub a,(14)-(13)
 355  001C  3D0A        	sz z
 355  001D  2800     R  	jmp _L10
 355  001E  0700     R  	mov a,_TRIAC_INT[0]
 355  001F  0A0F        	sub a,15
 355  0020  390A        	snz z
 355  0021  2800     R  	jmp _L2
 406  0022              #line 406 "d:\projects\bldc fan\remote fan final to production\global(longway)1\Remote Fan.c"
 406  0022  3094        	set [20].1
 406  0023  2800     R  	jmp _L19
 406  0024              _L3:
 358  0024              #line 358 "d:\projects\bldc fan\remote fan final to production\global(longway)1\Remote Fan.c"
 358  0024  3494        	clr [20].1
 358  0025  2800     R  	jmp _L19
 358  0026              _L4:
 364  0026              #line 364 "d:\projects\bldc fan\remote fan final to production\global(longway)1\Remote Fan.c"
 364  0026  3094        	set [20].1
 365  0027              #line 365 "d:\projects\bldc fan\remote fan final to production\global(longway)1\Remote Fan.c"
 365  0027  3641        	clr [65].4
 365  0028  2800     R  	jmp _L24
 365  0029              _L5:
 370  0029              #line 370 "d:\projects\bldc fan\remote fan final to production\global(longway)1\Remote Fan.c"
 370  0029  3094        	set [20].1
 371  002A              #line 371 "d:\projects\bldc fan\remote fan final to production\global(longway)1\Remote Fan.c"
 371  002A  3641        	clr [65].4
 371  002B  2800     R  	jmp _L25
 371  002C              _L6:
 376  002C              #line 376 "d:\projects\bldc fan\remote fan final to production\global(longway)1\Remote Fan.c"
 376  002C  3094        	set [20].1
 377  002D              #line 377 "d:\projects\bldc fan\remote fan final to production\global(longway)1\Remote Fan.c"
 377  002D  3641        	clr [65].4
 377  002E  2800     R  	jmp _L23
 377  002F              _L7:
 382  002F              #line 382 "d:\projects\bldc fan\remote fan final to production\global(longway)1\Remote Fan.c"
 382  002F  3094        	set [20].1
 383  0030              #line 383 "d:\projects\bldc fan\remote fan final to production\global(longway)1\Remote Fan.c"
 383  0030  3641        	clr [65].4
 383  0031  2800     R  	jmp _L22
 383  0032              _L8:
 388  0032              #line 388 "d:\projects\bldc fan\remote fan final to production\global(longway)1\Remote Fan.c"
 388  0032  3094        	set [20].1
 389  0033              #line 389 "d:\projects\bldc fan\remote fan final to production\global(longway)1\Remote Fan.c"
 389  0033  3241        	set [65].4
 389  0034              _L24:
 390  0034              #line 390 "d:\projects\bldc fan\remote fan final to production\global(longway)1\Remote Fan.c"
 390  0034  34C1        	clr [65].1
 390  0035  2800     R  	jmp _L20
 390  0036              _L9:
 394  0036              #line 394 "d:\projects\bldc fan\remote fan final to production\global(longway)1\Remote Fan.c"
 394  0036  3094        	set [20].1
 395  0037              #line 395 "d:\projects\bldc fan\remote fan final to production\global(longway)1\Remote Fan.c"
 395  0037  3241        	set [65].4
 395  0038              _L25:
 396  0038              #line 396 "d:\projects\bldc fan\remote fan final to production\global(longway)1\Remote Fan.c"
"File: Remote Fan.c  Assembler  Version HGASM0202      Page 4

 396  0038  34C1        	clr [65].1
 396  0039  2800     R  	jmp _L21
 396  003A              _L10:
 400  003A              #line 400 "d:\projects\bldc fan\remote fan final to production\global(longway)1\Remote Fan.c"
 400  003A  3094        	set [20].1
 401  003B              #line 401 "d:\projects\bldc fan\remote fan final to production\global(longway)1\Remote Fan.c"
 401  003B  3241        	set [65].4
 401  003C              _L23:
 402  003C              #line 402 "d:\projects\bldc fan\remote fan final to production\global(longway)1\Remote Fan.c"
 402  003C  30C1        	set [65].1
 402  003D              _L20:
 403  003D              #line 403 "d:\projects\bldc fan\remote fan final to production\global(longway)1\Remote Fan.c"
 403  003D  36C1        	clr [65].5
 404  003E              #line 404 "d:\projects\bldc fan\remote fan final to production\global(longway)1\Remote Fan.c"
 404  003E  2800     R  	jmp _L2
 404  003F              _L19:
 407  003F              #line 407 "d:\projects\bldc fan\remote fan final to production\global(longway)1\Remote Fan.c"
 407  003F  3241        	set [65].4
 407  0040              _L22:
 408  0040              #line 408 "d:\projects\bldc fan\remote fan final to production\global(longway)1\Remote Fan.c"
 408  0040  30C1        	set [65].1
 408  0041              _L21:
 409  0041              #line 409 "d:\projects\bldc fan\remote fan final to production\global(longway)1\Remote Fan.c"
 409  0041  32C1        	set [65].5
 409  0042              _L2:
 415  0042              #line 415 "d:\projects\bldc fan\remote fan final to production\global(longway)1\Remote Fan.c"
 415  0042  3800     E  	snz _TriacTimeoutFlag[0].4
 415  0043  2800     R  	jmp _L12
 417  0044              #line 417 "d:\projects\bldc fan\remote fan final to production\global(longway)1\Remote Fan.c"
 417  0044  0700     E  	mov a,_gDownCounterValue[0]
 417  0045  0080     E  	mov ra,a
 417  0046  1E00     E  	snz ra
 417  0047  2800     R  	jmp _L12
 418  0048              #line 418 "d:\projects\bldc fan\remote fan final to production\global(longway)1\Remote Fan.c"
 418  0048  1500     E  	deca ra
 418  0049  0080     E  	mov _gDownCounterValue[0],a
 418  004A              _L12:
 421  004A              #line 421 "d:\projects\bldc fan\remote fan final to production\global(longway)1\Remote Fan.c"
 421  004A  1F00     E  	clr _No_zero_cross_counter[0]
 421  004B  0700     E  	mov a,r2
 421  004C  008A        	mov status,a
 421  004D  0700     E  	mov a,r1
 421  004E  0004        	reti
 421  004F              _INT0_ISR endp
 421  004F              
 421  004F              #line 421 "d:\projects\bldc fan\remote fan final to production\global(longway)1\Remote Fan.c"
 421  004F              #pragma debug scope 1 1
 421  004F              ___mfi1 equ [77]
 421  004F              public _timer_i0
 421  004F              #pragma debug scope 4 1
 426  004F              #line 426 "d:\projects\bldc fan\remote fan final to production\global(longway)1\Remote Fan.c"
 426  0000              @timer_i0_code .section at 16 'code'
 426  0000              ifdef INTERRUPT_DELAY
 426  0000              	nop
 426  0000              endif
 426  0000  0080     E  	mov r1,a
 426  0001  070A        	mov a,status
 426  0002              ifndef INTERRUPT_DELAY
 426  0002  0080     E  	mov r2,a
 426  0003              endif
"File: Remote Fan.c  Assembler  Version HGASM0202      Page 5

 426  0003  2800     R  	jmp _timer_i0
 426  0004              #pragma debug scope 1 1
 426  0004              @dummy16 endp
 426  0004              #pragma debug scope 5 1
 426  0000              _timer_i0 .section 'code'
 426  0000              _timer_i0 proc
 426  0000              ifdef INTERRUPT_DELAY
 426  0000              	mov r2,a
 426  0000              endif
 428  0000              #line 428 "d:\projects\bldc fan\remote fan final to production\global(longway)1\Remote Fan.c"
 428  0000  36CD        	clr [77].5
 486  0001              #line 486 "d:\projects\bldc fan\remote fan final to production\global(longway)1\Remote Fan.c"
 486  0001  35B7        	clr [55].3
 486  0002  0700     E  	mov a,r2
 486  0003  008A        	mov status,a
 486  0004  0700     E  	mov a,r1
 486  0005  0004        	reti
 486  0006              _timer_i0 endp
 486  0006              
 486  0006              #line 486 "d:\projects\bldc fan\remote fan final to production\global(longway)1\Remote Fan.c"
 486  0006              #pragma debug scope 1 1
 486  0006              ___wdtc equ [26]
 486  0006              ___lvrc equ [29]
 486  0006              ___lvdc equ [24]
 486  0006              ___sledc0 equ [79]
 486  0006              ___sledc1 equ [80]
 486  0006              ___pac equ [21]
 486  0006              ___pcc equ [66]
 486  0006              ___pbc equ [38]
 486  0006              ___pbs0 equ [93]
 486  0006              ___integ equ [16]
 486  0006              ___ifs equ [81]
 486  0006              ___pas0 equ [91]
 486  0006              ___intc2 equ [19]
 486  0006              ___stmc1 equ [48]
 486  0006              ___stmc0 equ [47]
 486  0006              ___stmal equ [51]
 486  0006              ___stmah equ [52]
 486  0006              ___pcs0 equ [95]
 486  0006              ___ucr3 equ [118]
 486  0006              ___ucr1 equ [86]
 486  0006              ___ucr2 equ [87]
 486  0006              ___brg equ [88]
 486  0006              ___ptmc1 equ [56]
 486  0006              ___ptmal equ [59]
 486  0006              ___ptmah equ [60]
 486  0006              ___intc1 equ [18]
 486  0006              ___ctmc1 equ [41]
 486  0006              ___ctmc0 equ [40]
 486  0006              ___ctmal equ [44]
 486  0006              ___ctmah equ [45]
 486  0006              ___pb equ [37]
 486  0006              ___tb0c equ [27]
 486  0006              public _sysInit
 486  0006              #pragma debug scope 6 1
 536  0006              #line 536 "d:\projects\bldc fan\remote fan final to production\global(longway)1\Remote Fan.c"
 536  0000              _sysInit .section 'code'
 536  0000              _sysInit proc
 541  0000              #line 541 "d:\projects\bldc fan\remote fan final to production\global(longway)1\Remote Fan.c"
 541  0000  0FAB        	mov a,171
"File: Remote Fan.c  Assembler  Version HGASM0202      Page 6

 541  0001  009A        	mov [26],a
 549  0002              #line 549 "d:\projects\bldc fan\remote fan final to production\global(longway)1\Remote Fan.c"
 549  0002  0F66        	mov a,102
 549  0003  009D        	mov [29],a
 550  0004              #line 550 "d:\projects\bldc fan\remote fan final to production\global(longway)1\Remote Fan.c"
 550  0004  0F14        	mov a,20
 550  0005  0098        	mov [24],a
 558  0006              #line 558 "d:\projects\bldc fan\remote fan final to production\global(longway)1\Remote Fan.c"
 558  0006  31CF        	set [79].3
 558  0007  314F        	set [79].2
 558  0008  30CF        	set [79].1
 558  0009  304F        	set [79].0
 559  000A              #line 559 "d:\projects\bldc fan\remote fan final to production\global(longway)1\Remote Fan.c"
 559  000A  31D0        	set [80].3
 559  000B  3150        	set [80].2
 559  000C  30D0        	set [80].1
 559  000D  3050        	set [80].0
 562  000E              #line 562 "d:\projects\bldc fan\remote fan final to production\global(longway)1\Remote Fan.c"
 562  000E  3495        	clr [21].1
 562  000F  36C2        	clr [66].5
 562  0010  3642        	clr [66].4
 562  0011  34C2        	clr [66].1
 565  0012              #line 565 "d:\projects\bldc fan\remote fan final to production\global(longway)1\Remote Fan.c"
 565  0012  3415        	clr [21].0
 566  0013              #line 566 "d:\projects\bldc fan\remote fan final to production\global(longway)1\Remote Fan.c"
 566  0013  3795        	clr [21].7
 568  0014              #line 568 "d:\projects\bldc fan\remote fan final to production\global(longway)1\Remote Fan.c"
 568  0014  3026        	set [38].0
 569  0015              #line 569 "d:\projects\bldc fan\remote fan final to production\global(longway)1\Remote Fan.c"
 569  0015  1F5D        	clr [93]
 570  0016              #line 570 "d:\projects\bldc fan\remote fan final to production\global(longway)1\Remote Fan.c"
 570  0016  3611        	clr [17].4
 571  0017              #line 571 "d:\projects\bldc fan\remote fan final to production\global(longway)1\Remote Fan.c"
 571  0017  0F03        	mov a,3
 571  0018  0090        	mov [16],a
 572  0019              #line 572 "d:\projects\bldc fan\remote fan final to production\global(longway)1\Remote Fan.c"
 572  0019  3091        	set [17].1
 583  001A              #line 583 "d:\projects\bldc fan\remote fan final to production\global(longway)1\Remote Fan.c"
 583  001A  32D1        	set [81].5
 583  001B  36DB        	clr [91].5
 583  001C  365B        	clr [91].4
 583  001D  3115        	set [21].2
 584  001E              #line 584 "d:\projects\bldc fan\remote fan final to production\global(longway)1\Remote Fan.c"
 584  001E  3190        	set [16].3
 584  001F  3110        	set [16].2
 585  0020              #line 585 "d:\projects\bldc fan\remote fan final to production\global(longway)1\Remote Fan.c"
 585  0020  3693        	clr [19].5
 586  0021              #line 586 "d:\projects\bldc fan\remote fan final to production\global(longway)1\Remote Fan.c"
 586  0021  3093        	set [19].1
 589  0022              #line 589 "d:\projects\bldc fan\remote fan final to production\global(longway)1\Remote Fan.c"
 589  0022  33B0        	set [48].7
 589  0023  3330        	set [48].6
 590  0024              #line 590 "d:\projects\bldc fan\remote fan final to production\global(longway)1\Remote Fan.c"
 590  0024  372F        	clr [47].6
 590  0025  32AF        	set [47].5
 590  0026  362F        	clr [47].4
 591  0027              #line 591 "d:\projects\bldc fan\remote fan final to production\global(longway)1\Remote Fan.c"
 591  0027  3030        	set [48].0
 592  0028              #line 592 "d:\projects\bldc fan\remote fan final to production\global(longway)1\Remote Fan.c"
 592  0028  0F7C        	mov a,124
"File: Remote Fan.c  Assembler  Version HGASM0202      Page 7

 592  0029  00B3        	mov [51],a
 593  002A              #line 593 "d:\projects\bldc fan\remote fan final to production\global(longway)1\Remote Fan.c"
 593  002A  0F92        	mov a,146
 593  002B  00B4        	mov [52],a
 594  002C              #line 594 "d:\projects\bldc fan\remote fan final to production\global(longway)1\Remote Fan.c"
 594  002C  35AF        	clr [47].3
 598  002D              #line 598 "d:\projects\bldc fan\remote fan final to production\global(longway)1\Remote Fan.c"
 598  002D  3442        	clr [66].0
 599  002E              #line 599 "d:\projects\bldc fan\remote fan final to production\global(longway)1\Remote Fan.c"
 599  002E  34DF        	clr [95].1
 599  002F  305F        	set [95].0
 601  0030              #line 601 "d:\projects\bldc fan\remote fan final to production\global(longway)1\Remote Fan.c"
 601  0030  3476        	clr [118].0
 602  0031              #line 602 "d:\projects\bldc fan\remote fan final to production\global(longway)1\Remote Fan.c"
 602  0031  36D6        	clr [86].5
 603  0032              #line 603 "d:\projects\bldc fan\remote fan final to production\global(longway)1\Remote Fan.c"
 603  0032  3756        	clr [86].6
 604  0033              #line 604 "d:\projects\bldc fan\remote fan final to production\global(longway)1\Remote Fan.c"
 604  0033  36D7        	clr [87].5
 605  0034              #line 605 "d:\projects\bldc fan\remote fan final to production\global(longway)1\Remote Fan.c"
 605  0034  35D6        	clr [86].3
 606  0035              #line 606 "d:\projects\bldc fan\remote fan final to production\global(longway)1\Remote Fan.c"
 606  0035  0F0C        	mov a,12
 606  0036  00D8        	mov [88],a
 607  0037              #line 607 "d:\projects\bldc fan\remote fan final to production\global(longway)1\Remote Fan.c"
 607  0037  33D6        	set [86].7
 608  0038              #line 608 "d:\projects\bldc fan\remote fan final to production\global(longway)1\Remote Fan.c"
 608  0038  33D7        	set [87].7
 616  0039              #line 616 "d:\projects\bldc fan\remote fan final to production\global(longway)1\Remote Fan.c"
 616  0039  0F50        	mov a,80
 616  003A  00B7        	mov [55],a
 617  003B              #line 617 "d:\projects\bldc fan\remote fan final to production\global(longway)1\Remote Fan.c"
 617  003B  0FC1        	mov a,193
 617  003C  00B8        	mov [56],a
 618  003D              #line 618 "d:\projects\bldc fan\remote fan final to production\global(longway)1\Remote Fan.c"
 618  003D  0FF0        	mov a,240
 618  003E  00BB        	mov [59],a
 619  003F              #line 619 "d:\projects\bldc fan\remote fan final to production\global(longway)1\Remote Fan.c"
 619  003F  0F03        	mov a,3
 619  0040  00BC        	mov [60],a
 622  0041              #line 622 "d:\projects\bldc fan\remote fan final to production\global(longway)1\Remote Fan.c"
 622  0041  3012        	set [18].0
 623  0042              #line 623 "d:\projects\bldc fan\remote fan final to production\global(longway)1\Remote Fan.c"
 623  0042  3612        	clr [18].4
 624  0043              #line 624 "d:\projects\bldc fan\remote fan final to production\global(longway)1\Remote Fan.c"
 624  0043  36CD        	clr [77].5
 625  0044              #line 625 "d:\projects\bldc fan\remote fan final to production\global(longway)1\Remote Fan.c"
 625  0044  30CD        	set [77].1
 626  0045              #line 626 "d:\projects\bldc fan\remote fan final to production\global(longway)1\Remote Fan.c"
 626  0045  3011        	set [17].0
 632  0046              #line 632 "d:\projects\bldc fan\remote fan final to production\global(longway)1\Remote Fan.c"
 632  0046  33A9        	set [41].7
 632  0047  3329        	set [41].6
 633  0048              #line 633 "d:\projects\bldc fan\remote fan final to production\global(longway)1\Remote Fan.c"
 633  0048  3328        	set [40].6
 633  0049  36A8        	clr [40].5
 633  004A  3228        	set [40].4
 634  004B              #line 634 "d:\projects\bldc fan\remote fan final to production\global(longway)1\Remote Fan.c"
 634  004B  3029        	set [41].0
 635  004C              #line 635 "d:\projects\bldc fan\remote fan final to production\global(longway)1\Remote Fan.c"
"File: Remote Fan.c  Assembler  Version HGASM0202      Page 8

 635  004C  1F2C        	clr [44]
 636  004D              #line 636 "d:\projects\bldc fan\remote fan final to production\global(longway)1\Remote Fan.c"
 636  004D  0F05        	mov a,5
 636  004E  00AD        	mov [45],a
 637  004F              #line 637 "d:\projects\bldc fan\remote fan final to production\global(longway)1\Remote Fan.c"
 637  004F  35A8        	clr [40].3
 639  0050              #line 639 "d:\projects\bldc fan\remote fan final to production\global(longway)1\Remote Fan.c"
 639  0050  3795        	clr [21].7
 640  0051              #line 640 "d:\projects\bldc fan\remote fan final to production\global(longway)1\Remote Fan.c"
 640  0051  3794        	clr [20].7
 641  0052              #line 641 "d:\projects\bldc fan\remote fan final to production\global(longway)1\Remote Fan.c"
 641  0052  3726        	clr [38].6
 642  0053              #line 642 "d:\projects\bldc fan\remote fan final to production\global(longway)1\Remote Fan.c"
 642  0053  3725        	clr [37].6
 664  0054              #line 664 "d:\projects\bldc fan\remote fan final to production\global(longway)1\Remote Fan.c"
 664  0054  3792        	clr [18].7
 665  0055              #line 665 "d:\projects\bldc fan\remote fan final to production\global(longway)1\Remote Fan.c"
 665  0055  0F87        	mov a,135
 665  0056  009B        	mov [27],a
 666  0057              #line 666 "d:\projects\bldc fan\remote fan final to production\global(longway)1\Remote Fan.c"
 666  0057  3192        	set [18].3
 666  0058  0003        	ret
 666  0059              _sysInit endp
 666  0059              #line 666 "d:\projects\bldc fan\remote fan final to production\global(longway)1\Remote Fan.c"
 666  0059              #pragma debug scope 1 1
 666  0059              public _main
 666  0059              #pragma debug scope 7 1
  51  0059              #line 51 "d:\projects\bldc fan\remote fan final to production\global(longway)1\Remote Fan.c"
  51  0059              IFDEF WITH_DEFAULT_STARTUP
  51  0059              extern _main_initial0:near
  51  0059              extern _main_startup:near
  51  0059              ENDIF
  51  0059              
  51  0059              ROMBANK 0 @start
  51  0000              @start .section com_l 'code'
  51  0000              _main_startup1:
  51  0000              @start .section com_e 'code'
  51  0000  2800     R  	jmp _main
  51  0001              
  51  0000              _main .section 'code'
  51  0000              _main proc
  60  0000              #line 60 "d:\projects\bldc fan\remote fan final to production\global(longway)1\Remote Fan.c"
  60  0000  2000     R  	call _sysInit
  67  0001              #line 67 "d:\projects\bldc fan\remote fan final to production\global(longway)1\Remote Fan.c"
  67  0001  2000     E  	call _app
  67  0002  2800     R  	jmp $
  67  0003              _main endp
  67  0003              
  67  0003              @dummy endp
  67  0003              
  67  0003              #line 67 "d:\projects\bldc fan\remote fan final to production\global(longway)1\Remote Fan.c"
  67  0003              #pragma debug scope 1 1
  67  0003              public _TRIAC_INT
  67  0000              @HCCINIT	.section 'data'
  48  0000              #line 48 "d:\projects\bldc fan\remote fan final to production\global(longway)1\Remote Fan.c"
  48  0000              @HCCINIT_TRIAC_INT .section 'data'
  48  0000              _TRIAC_INT label byte
  48  0000              #pragma debug variable 8 1 _TRIAC_INT "TRIAC_INT"
  48  0000              	db 0
  48  0000              @ROMDATA_BASE .section inpage 'code'
"File: Remote Fan.c  Assembler  Version HGASM0202      Page 9

  48  0000              	db 0
  48  0001              @HCCINIT_TRIAC_INT .section 'data'
  26  0001              #line 26 "d:\projects\bldc fan\remote fan final to production\global(longway)1\Remote Fan.c"
  26  0001              public _keyPressIndiVal
  26  0000              @HCCINIT0_keyPressIndiVal .section 'data'
  26  0000  0004[       _keyPressIndiVal	db 4 dup(0)
            00
            ]
  26  0004              #pragma debug variable 14 1 _keyPressIndiVal "keyPressIndiVal"
  26  0004              
  26  0000              @HCCINIT .section 'data'
  26  0000              #pragma debug struct_end
  26  0000              #pragma debug struct_end
  26  0000              #pragma debug union_end
  26  0000              #pragma debug union_end
  26  0000              #pragma debug variable 43 1 ___integ "__integ" 1
  26  0000              #pragma debug struct_end
  26  0000              #pragma debug struct_end
  26  0000              #pragma debug union_end
  26  0000              #pragma debug union_end
  26  0000              #pragma debug variable 45 1 ___intc0 "__intc0" 1
  26  0000              #pragma debug struct_end
  26  0000              #pragma debug struct_end
  26  0000              #pragma debug union_end
  26  0000              #pragma debug union_end
  26  0000              #pragma debug variable 47 1 ___intc1 "__intc1" 1
  26  0000              #pragma debug struct_end
  26  0000              #pragma debug struct_end
  26  0000              #pragma debug union_end
  26  0000              #pragma debug union_end
  26  0000              #pragma debug variable 49 1 ___intc2 "__intc2" 1
  26  0000              #pragma debug struct_end
  26  0000              #pragma debug struct_end
  26  0000              #pragma debug union_end
  26  0000              #pragma debug union_end
  26  0000              #pragma debug variable 51 1 ___pa "__pa" 1
  26  0000              #pragma debug struct_end
  26  0000              #pragma debug struct_end
  26  0000              #pragma debug union_end
  26  0000              #pragma debug union_end
  26  0000              #pragma debug variable 53 1 ___pac "__pac" 1
  26  0000              #pragma debug struct_end
  26  0000              #pragma debug struct_end
  26  0000              #pragma debug union_end
  26  0000              #pragma debug union_end
  26  0000              #pragma debug variable 55 1 ___lvdc "__lvdc" 1
  26  0000              #pragma debug struct_end
  26  0000              #pragma debug struct_end
  26  0000              #pragma debug union_end
  26  0000              #pragma debug union_end
  26  0000              #pragma debug variable 57 1 ___wdtc "__wdtc" 1
  26  0000              #pragma debug struct_end
  26  0000              #pragma debug struct_end
  26  0000              #pragma debug union_end
  26  0000              #pragma debug union_end
  26  0000              #pragma debug variable 59 1 ___tb0c "__tb0c" 1
  26  0000              #pragma debug struct_end
  26  0000              #pragma debug struct_end
  26  0000              #pragma debug union_end
  26  0000              #pragma debug union_end
"File: Remote Fan.c  Assembler  Version HGASM0202      Page 10

  26  0000              #pragma debug variable 61 1 ___lvrc "__lvrc" 1
  26  0000              #pragma debug struct_end
  26  0000              #pragma debug struct_end
  26  0000              #pragma debug union_end
  26  0000              #pragma debug union_end
  26  0000              #pragma debug variable 63 1 ___pb "__pb" 1
  26  0000              #pragma debug struct_end
  26  0000              #pragma debug struct_end
  26  0000              #pragma debug union_end
  26  0000              #pragma debug union_end
  26  0000              #pragma debug variable 65 1 ___pbc "__pbc" 1
  26  0000              #pragma debug struct_end
  26  0000              #pragma debug struct_end
  26  0000              #pragma debug union_end
  26  0000              #pragma debug union_end
  26  0000              #pragma debug variable 67 1 ___ctmc0 "__ctmc0" 1
  26  0000              #pragma debug struct_end
  26  0000              #pragma debug struct_end
  26  0000              #pragma debug union_end
  26  0000              #pragma debug union_end
  26  0000              #pragma debug variable 69 1 ___ctmc1 "__ctmc1" 1
  26  0000              #pragma debug variable 8 1 ___ctmal "__ctmal" 1
  26  0000              #pragma debug variable 8 1 ___ctmah "__ctmah" 1
  26  0000              #pragma debug struct_end
  26  0000              #pragma debug struct_end
  26  0000              #pragma debug union_end
  26  0000              #pragma debug union_end
  26  0000              #pragma debug variable 71 1 ___stmc0 "__stmc0" 1
  26  0000              #pragma debug struct_end
  26  0000              #pragma debug struct_end
  26  0000              #pragma debug union_end
  26  0000              #pragma debug union_end
  26  0000              #pragma debug variable 73 1 ___stmc1 "__stmc1" 1
  26  0000              #pragma debug variable 8 1 ___stmal "__stmal" 1
  26  0000              #pragma debug variable 8 1 ___stmah "__stmah" 1
  26  0000              #pragma debug struct_end
  26  0000              #pragma debug struct_end
  26  0000              #pragma debug union_end
  26  0000              #pragma debug union_end
  26  0000              #pragma debug variable 75 1 ___ptmc0 "__ptmc0" 1
  26  0000              #pragma debug struct_end
  26  0000              #pragma debug struct_end
  26  0000              #pragma debug union_end
  26  0000              #pragma debug union_end
  26  0000              #pragma debug variable 77 1 ___ptmc1 "__ptmc1" 1
  26  0000              #pragma debug variable 8 1 ___ptmal "__ptmal" 1
  26  0000              #pragma debug variable 8 1 ___ptmah "__ptmah" 1
  26  0000              #pragma debug struct_end
  26  0000              #pragma debug struct_end
  26  0000              #pragma debug union_end
  26  0000              #pragma debug union_end
  26  0000              #pragma debug variable 79 1 ___pc "__pc" 1
  26  0000              #pragma debug struct_end
  26  0000              #pragma debug struct_end
  26  0000              #pragma debug union_end
  26  0000              #pragma debug union_end
  26  0000              #pragma debug variable 81 1 ___pcc "__pcc" 1
  26  0000              #pragma debug struct_end
  26  0000              #pragma debug struct_end
  26  0000              #pragma debug union_end
"File: Remote Fan.c  Assembler  Version HGASM0202      Page 11

  26  0000              #pragma debug union_end
  26  0000              #pragma debug variable 83 1 ___mfi1 "__mfi1" 1
  26  0000              #pragma debug struct_end
  26  0000              #pragma debug struct_end
  26  0000              #pragma debug union_end
  26  0000              #pragma debug union_end
  26  0000              #pragma debug variable 85 1 ___sledc0 "__sledc0" 1
  26  0000              #pragma debug struct_end
  26  0000              #pragma debug struct_end
  26  0000              #pragma debug union_end
  26  0000              #pragma debug union_end
  26  0000              #pragma debug variable 87 1 ___sledc1 "__sledc1" 1
  26  0000              #pragma debug struct_end
  26  0000              #pragma debug struct_end
  26  0000              #pragma debug union_end
  26  0000              #pragma debug union_end
  26  0000              #pragma debug variable 89 1 ___ifs "__ifs" 1
  26  0000              #pragma debug struct_end
  26  0000              #pragma debug struct_end
  26  0000              #pragma debug union_end
  26  0000              #pragma debug union_end
  26  0000              #pragma debug variable 91 1 ___ucr1 "__ucr1" 1
  26  0000              #pragma debug struct_end
  26  0000              #pragma debug struct_end
  26  0000              #pragma debug union_end
  26  0000              #pragma debug union_end
  26  0000              #pragma debug variable 93 1 ___ucr2 "__ucr2" 1
  26  0000              #pragma debug struct_end
  26  0000              #pragma debug struct_end
  26  0000              #pragma debug union_end
  26  0000              #pragma debug union_end
  26  0000              #pragma debug variable 95 1 ___brg "__brg" 1
  26  0000              #pragma debug struct_end
  26  0000              #pragma debug struct_end
  26  0000              #pragma debug union_end
  26  0000              #pragma debug union_end
  26  0000              #pragma debug variable 97 1 ___pas0 "__pas0" 1
  26  0000              #pragma debug struct_end
  26  0000              #pragma debug struct_end
  26  0000              #pragma debug union_end
  26  0000              #pragma debug union_end
  26  0000              #pragma debug variable 99 1 ___pbs0 "__pbs0" 1
  26  0000              #pragma debug struct_end
  26  0000              #pragma debug struct_end
  26  0000              #pragma debug union_end
  26  0000              #pragma debug union_end
  26  0000              #pragma debug variable 101 1 ___pcs0 "__pcs0" 1
  26  0000              #pragma debug struct_end
  26  0000              #pragma debug struct_end
  26  0000              #pragma debug union_end
  26  0000              #pragma debug union_end
  26  0000              #pragma debug variable 103 1 ___ucr3 "__ucr3" 1
  26  0000              
  26  0000              ; output external variables
  26  0000              extern _No_zero_cross_counter:byte
  26  0000              extern _gDownCounterValue:byte
  26  0000              extern _TriacTimeoutFlag:byte
  26  0000              extern r1:byte
  26  0000              extern r2:byte
  51  0000              #line 51 "d:\projects\bldc fan\remote fan final to production\global(longway)1\Remote Fan.c"
"File: Remote Fan.c  Assembler  Version HGASM0202      Page 12

  51  0000              @code .section at 0 'code'
  51  0000  2800     R  	jmp _main_startup1
  51  0001              
  51  0001              extern _app:near
  51  0001              
  51  0001              ; 
  51  0001              ; Generated by holtek-gcc v3.19, Tue Apr 05 13:18:20 2022
  51  0001              ; Rebuild 718
  51  0001              ; end of file


        0 Errors, 0